GAS LISTING /tmp/ccNJEbMZ.s 			page 1


   1              		.file	"ccb.cpp"
   2              		.option nopic
   3              		.option norelax
   4              		.attribute arch, "rv64i2p0_m2p0_a2p0"
   5              		.attribute unaligned_access, 0
   6              		.attribute stack_align, 16
   7              		.text
   8              	.Ltext0:
   9              		.align	2
  10              		.globl	_ZN3CCB16coroutineWrapperEv
  12              	_ZN3CCB16coroutineWrapperEv:
  13              	.LFB43:
  14              		.file 1 "src/ccb.cpp"
   1:src/ccb.cpp   **** //
   2:src/ccb.cpp   **** // Created by os on 9/26/25.
   3:src/ccb.cpp   **** //
   4:src/ccb.cpp   **** 
   5:src/ccb.cpp   **** #include "../h/ccb.hpp"
   6:src/ccb.cpp   **** #include "../h/riscv.hpp"
   7:src/ccb.cpp   **** #include "../h/Scheduler.hpp"
   8:src/ccb.cpp   **** #include "../h/syscall_c.hpp"
   9:src/ccb.cpp   **** 
  10:src/ccb.cpp   **** CCB *CCB::running = nullptr;
  11:src/ccb.cpp   **** CCB* CCB::mainThread = nullptr;
  12:src/ccb.cpp   **** 
  13:src/ccb.cpp   **** void CCB::yield() {
  14:src/ccb.cpp   ****     thread_dispatch();
  15:src/ccb.cpp   **** }
  16:src/ccb.cpp   **** 
  17:src/ccb.cpp   **** void CCB::dispatch() {
  18:src/ccb.cpp   ****     CCB *old = running;
  19:src/ccb.cpp   ****     if (old != CCB::mainThread && !old->isFinished()) {
  20:src/ccb.cpp   ****         Scheduler::put(old);
  21:src/ccb.cpp   ****     }
  22:src/ccb.cpp   **** 
  23:src/ccb.cpp   ****     running = Scheduler::get();
  24:src/ccb.cpp   ****     if (!running) running = CCB::mainThread;
  25:src/ccb.cpp   **** 
  26:src/ccb.cpp   ****     if (old != running) {
  27:src/ccb.cpp   ****         contextSwitch(old->getContext(), running->getContext());
  28:src/ccb.cpp   ****     }
  29:src/ccb.cpp   **** }
  30:src/ccb.cpp   **** 
  31:src/ccb.cpp   **** CCB* CCB::createCoroutine(Body body, void* arg) {
  32:src/ccb.cpp   ****     CCB* ccb = new CCB(body, arg);
  33:src/ccb.cpp   ****     if (ccb && body) {
  34:src/ccb.cpp   ****         Scheduler::put(ccb);
  35:src/ccb.cpp   ****     }
  36:src/ccb.cpp   ****     return ccb;
  37:src/ccb.cpp   **** }
  38:src/ccb.cpp   **** 
  39:src/ccb.cpp   **** void CCB::coroutineWrapper() {
  15              		.loc 1 39 30
  16              		.cfi_startproc
  17 0000 130101FF 		addi	sp,sp,-16
  18              		.cfi_def_cfa_offset 16
  19 0004 23341100 		sd	ra,8(sp)
GAS LISTING /tmp/ccNJEbMZ.s 			page 2


  20 0008 23308100 		sd	s0,0(sp)
  21              		.cfi_offset 1, -8
  22              		.cfi_offset 8, -16
  23 000c 13040101 		addi	s0,sp,16
  24              		.cfi_def_cfa 8, 0
  40:src/ccb.cpp   ****     // Uključi prekide, nastavi normalno
  41:src/ccb.cpp   ****     Riscv::ms_sstatus(Riscv::SSTATUS_SIE);
  25              		.loc 1 41 5
  26              	.LVL0:
  27              	.LBB12:
  28              	.LBB13:
  29              		.file 2 "src/../h/riscv.hpp"
   1:src/../h/riscv.hpp **** //
   2:src/../h/riscv.hpp **** // Created by os on 9/26/25.
   3:src/../h/riscv.hpp **** //
   4:src/../h/riscv.hpp **** 
   5:src/../h/riscv.hpp **** #ifndef PROJECT_BASE_V1_1_RISCV_HPP
   6:src/../h/riscv.hpp **** #define PROJECT_BASE_V1_1_RISCV_HPP
   7:src/../h/riscv.hpp **** 
   8:src/../h/riscv.hpp **** #include "../lib/hw.h"
   9:src/../h/riscv.hpp **** 
  10:src/../h/riscv.hpp **** extern "C" void supervisorTrap();
  11:src/../h/riscv.hpp **** 
  12:src/../h/riscv.hpp **** class Riscv
  13:src/../h/riscv.hpp **** {
  14:src/../h/riscv.hpp **** public:
  15:src/../h/riscv.hpp **** 
  16:src/../h/riscv.hpp ****     // pop sstatus.spp and sstatus.spie bits (has to be a non inline function)
  17:src/../h/riscv.hpp ****     static void popSppSpie();
  18:src/../h/riscv.hpp **** 
  19:src/../h/riscv.hpp ****     static void pushRegisters();
  20:src/../h/riscv.hpp **** 
  21:src/../h/riscv.hpp ****     static void popRegisters();
  22:src/../h/riscv.hpp **** 
  23:src/../h/riscv.hpp ****     // read register scause
  24:src/../h/riscv.hpp ****     static uint64 r_scause();
  25:src/../h/riscv.hpp **** 
  26:src/../h/riscv.hpp ****     // write register scause
  27:src/../h/riscv.hpp ****     static void w_scause(uint64 scause);
  28:src/../h/riscv.hpp **** 
  29:src/../h/riscv.hpp ****     // read register sepc
  30:src/../h/riscv.hpp ****     static uint64 r_sepc();
  31:src/../h/riscv.hpp **** 
  32:src/../h/riscv.hpp ****     // write register sepc
  33:src/../h/riscv.hpp ****     static void w_sepc(uint64 sepc);
  34:src/../h/riscv.hpp **** 
  35:src/../h/riscv.hpp ****     // read register stvec
  36:src/../h/riscv.hpp ****     static uint64 r_stvec();
  37:src/../h/riscv.hpp **** 
  38:src/../h/riscv.hpp ****     // write register stvec
  39:src/../h/riscv.hpp ****     static void w_stvec(uint64 stvec);
  40:src/../h/riscv.hpp **** 
  41:src/../h/riscv.hpp ****     // read register stval
  42:src/../h/riscv.hpp ****     static uint64 r_stval();
  43:src/../h/riscv.hpp **** 
  44:src/../h/riscv.hpp ****     // write register stval
  45:src/../h/riscv.hpp ****     static void w_stval(uint64 stval);
GAS LISTING /tmp/ccNJEbMZ.s 			page 3


  46:src/../h/riscv.hpp **** 
  47:src/../h/riscv.hpp ****     enum BitMaskSip
  48:src/../h/riscv.hpp ****     {
  49:src/../h/riscv.hpp ****         SIP_SSIP = (1 << 1),
  50:src/../h/riscv.hpp ****         SIP_STIP = (1 << 5),
  51:src/../h/riscv.hpp ****         SIP_SEIP = (1 << 9),
  52:src/../h/riscv.hpp ****     };
  53:src/../h/riscv.hpp **** 
  54:src/../h/riscv.hpp ****     // mask set register sip
  55:src/../h/riscv.hpp ****     static void ms_sip(uint64 mask);
  56:src/../h/riscv.hpp **** 
  57:src/../h/riscv.hpp ****     // mask clear register sip
  58:src/../h/riscv.hpp ****     static void mc_sip(uint64 mask);
  59:src/../h/riscv.hpp **** 
  60:src/../h/riscv.hpp ****     // read register sip
  61:src/../h/riscv.hpp ****     static uint64 r_sip();
  62:src/../h/riscv.hpp **** 
  63:src/../h/riscv.hpp ****     // write register sip
  64:src/../h/riscv.hpp ****     static void w_sip(uint64 sip);
  65:src/../h/riscv.hpp **** 
  66:src/../h/riscv.hpp ****     enum BitMaskSstatus
  67:src/../h/riscv.hpp ****     {
  68:src/../h/riscv.hpp ****         SSTATUS_SIE = (1 << 1),
  69:src/../h/riscv.hpp ****         SSTATUS_SPIE = (1 << 5),
  70:src/../h/riscv.hpp ****         SSTATUS_SPP = (1 << 8),
  71:src/../h/riscv.hpp ****     };
  72:src/../h/riscv.hpp **** 
  73:src/../h/riscv.hpp ****     // mask set register sstatus
  74:src/../h/riscv.hpp ****     static void ms_sstatus(uint64 mask);
  75:src/../h/riscv.hpp **** 
  76:src/../h/riscv.hpp ****     // mask clear register sstatus
  77:src/../h/riscv.hpp ****     static void mc_sstatus(uint64 mask);
  78:src/../h/riscv.hpp **** 
  79:src/../h/riscv.hpp ****     // read register sstatus
  80:src/../h/riscv.hpp ****     static uint64 r_sstatus();
  81:src/../h/riscv.hpp **** 
  82:src/../h/riscv.hpp ****     // write register sstatus
  83:src/../h/riscv.hpp ****     static void w_sstatus(uint64 sstatus);
  84:src/../h/riscv.hpp **** 
  85:src/../h/riscv.hpp ****     /* -------------------------------------- */
  86:src/../h/riscv.hpp **** 
  87:src/../h/riscv.hpp ****     // čitaj sie registar
  88:src/../h/riscv.hpp ****     static uint64 r_sie();
  89:src/../h/riscv.hpp **** 
  90:src/../h/riscv.hpp ****     // piši u sie registar
  91:src/../h/riscv.hpp ****     static void w_sie(uint64 sie);
  92:src/../h/riscv.hpp **** 
  93:src/../h/riscv.hpp ****     // mask set u sie registru
  94:src/../h/riscv.hpp ****     static void ms_sie(uint64 mask);
  95:src/../h/riscv.hpp **** 
  96:src/../h/riscv.hpp ****     // mask clear u sie registru
  97:src/../h/riscv.hpp ****     static void mc_sie(uint64 mask);
  98:src/../h/riscv.hpp **** 
  99:src/../h/riscv.hpp ****     enum BitMaskSie {
 100:src/../h/riscv.hpp ****         SIE_SEIE = (1 << 9), // Supervisor External Interrupt Enable
 101:src/../h/riscv.hpp ****         SIE_STIE = (1 << 5), // Supervisor Timer Interrupt Enable
 102:src/../h/riscv.hpp ****         SIE_SSIE = (1 << 1), // Supervisor Software Interrupt Enable
GAS LISTING /tmp/ccNJEbMZ.s 			page 4


 103:src/../h/riscv.hpp ****     };
 104:src/../h/riscv.hpp **** 
 105:src/../h/riscv.hpp **** 
 106:src/../h/riscv.hpp **** 
 107:src/../h/riscv.hpp **** private:
 108:src/../h/riscv.hpp **** 
 109:src/../h/riscv.hpp ****     static uint64 handleSupervisorTrap();
 110:src/../h/riscv.hpp **** 
 111:src/../h/riscv.hpp **** };
 112:src/../h/riscv.hpp **** 
 113:src/../h/riscv.hpp **** inline uint64 Riscv::r_scause()
 114:src/../h/riscv.hpp **** {
 115:src/../h/riscv.hpp ****     uint64 volatile scause;
 116:src/../h/riscv.hpp ****     __asm__ volatile ("csrr %[scause], scause" : [scause] "=r"(scause));
 117:src/../h/riscv.hpp ****     return scause;
 118:src/../h/riscv.hpp **** }
 119:src/../h/riscv.hpp **** 
 120:src/../h/riscv.hpp **** inline void Riscv::w_scause(uint64 scause)
 121:src/../h/riscv.hpp **** {
 122:src/../h/riscv.hpp ****     __asm__ volatile ("csrw scause, %[scause]" : : [scause] "r"(scause));
 123:src/../h/riscv.hpp **** }
 124:src/../h/riscv.hpp **** 
 125:src/../h/riscv.hpp **** inline uint64 Riscv::r_sepc()
 126:src/../h/riscv.hpp **** {
 127:src/../h/riscv.hpp ****     uint64 volatile sepc;
 128:src/../h/riscv.hpp ****     __asm__ volatile ("csrr %[sepc], sepc" : [sepc] "=r"(sepc));
 129:src/../h/riscv.hpp ****     return sepc;
 130:src/../h/riscv.hpp **** }
 131:src/../h/riscv.hpp **** 
 132:src/../h/riscv.hpp **** inline void Riscv::w_sepc(uint64 sepc)
 133:src/../h/riscv.hpp **** {
 134:src/../h/riscv.hpp ****     __asm__ volatile ("csrw sepc, %[sepc]" : : [sepc] "r"(sepc));
 135:src/../h/riscv.hpp **** }
 136:src/../h/riscv.hpp **** 
 137:src/../h/riscv.hpp **** inline uint64 Riscv::r_stvec()
 138:src/../h/riscv.hpp **** {
 139:src/../h/riscv.hpp ****     uint64 volatile stvec;
 140:src/../h/riscv.hpp ****     __asm__ volatile ("csrr %[stvec], stvec" : [stvec] "=r"(stvec));
 141:src/../h/riscv.hpp ****     return stvec;
 142:src/../h/riscv.hpp **** }
 143:src/../h/riscv.hpp **** 
 144:src/../h/riscv.hpp **** inline void Riscv::w_stvec(uint64 stvec)
 145:src/../h/riscv.hpp **** {
 146:src/../h/riscv.hpp ****     __asm__ volatile ("csrw stvec, %[stvec]" : : [stvec] "r"(stvec));
 147:src/../h/riscv.hpp **** }
 148:src/../h/riscv.hpp **** 
 149:src/../h/riscv.hpp **** inline uint64 Riscv::r_stval()
 150:src/../h/riscv.hpp **** {
 151:src/../h/riscv.hpp ****     uint64 volatile stval;
 152:src/../h/riscv.hpp ****     __asm__ volatile ("csrr %[stval], stval" : [stval] "=r"(stval));
 153:src/../h/riscv.hpp ****     return stval;
 154:src/../h/riscv.hpp **** }
 155:src/../h/riscv.hpp **** 
 156:src/../h/riscv.hpp **** inline void Riscv::w_stval(uint64 stval)
 157:src/../h/riscv.hpp **** {
 158:src/../h/riscv.hpp ****     __asm__ volatile ("csrw stval, %[stval]" : : [stval] "r"(stval));
 159:src/../h/riscv.hpp **** }
GAS LISTING /tmp/ccNJEbMZ.s 			page 5


 160:src/../h/riscv.hpp **** 
 161:src/../h/riscv.hpp **** inline void Riscv::ms_sip(uint64 mask)
 162:src/../h/riscv.hpp **** {
 163:src/../h/riscv.hpp ****     __asm__ volatile ("csrs sip, %[mask]" : : [mask] "r"(mask));
 164:src/../h/riscv.hpp **** }
 165:src/../h/riscv.hpp **** 
 166:src/../h/riscv.hpp **** inline void Riscv::mc_sip(uint64 mask)
 167:src/../h/riscv.hpp **** {
 168:src/../h/riscv.hpp ****     __asm__ volatile ("csrc sip, %[mask]" : : [mask] "r"(mask));
 169:src/../h/riscv.hpp **** }
 170:src/../h/riscv.hpp **** 
 171:src/../h/riscv.hpp **** inline uint64 Riscv::r_sip()
 172:src/../h/riscv.hpp **** {
 173:src/../h/riscv.hpp ****     uint64 volatile sip;
 174:src/../h/riscv.hpp ****     __asm__ volatile ("csrr %[sip], sip" : [sip] "=r"(sip));
 175:src/../h/riscv.hpp ****     return sip;
 176:src/../h/riscv.hpp **** }
 177:src/../h/riscv.hpp **** 
 178:src/../h/riscv.hpp **** inline void Riscv::w_sip(uint64 sip)
 179:src/../h/riscv.hpp **** {
 180:src/../h/riscv.hpp ****     __asm__ volatile ("csrw sip, %[sip]" : : [sip] "r"(sip));
 181:src/../h/riscv.hpp **** }
 182:src/../h/riscv.hpp **** 
 183:src/../h/riscv.hpp **** inline void Riscv::ms_sstatus(uint64 mask)
 184:src/../h/riscv.hpp **** {
 185:src/../h/riscv.hpp ****     __asm__ volatile ("csrs sstatus, %[mask]" : : [mask] "r"(mask));
  30              		.loc 2 185 5
  31              		.loc 2 185 68 is_stmt 0
  32 0010 93072000 		li	a5,2
  33              	 #APP
  34              	# 185 "src/../h/riscv.hpp" 1
 186              	}
  35              		csrs sstatus, a5
  36              	# 0 "" 2
  37              	.LVL1:
  38              	 #NO_APP
  39              	.LBE13:
  40              	.LBE12:
  42:src/ccb.cpp   **** 
  43:src/ccb.cpp   ****     if (running->body) {
  41              		.loc 1 43 5 is_stmt 1
  42              		.loc 1 43 18 is_stmt 0
  43 0018 17070000 		ld	a4,_ZN3CCB7runningE
  43      03370700 
  44 0020 83378700 		ld	a5,8(a4)
  45              		.loc 1 43 5
  46 0024 63860700 		beqz	a5,.L2
  44:src/ccb.cpp   ****         running->body(running->arg);
  47              		.loc 1 44 9 is_stmt 1
  48              		.loc 1 44 22 is_stmt 0
  49 0028 03350701 		ld	a0,16(a4)
  50 002c E7800700 		jalr	a5
  51              	.LVL2:
  52              	.L2:
  45:src/ccb.cpp   ****     }
  46:src/ccb.cpp   **** 
  47:src/ccb.cpp   ****     running->setFinished(true);
GAS LISTING /tmp/ccNJEbMZ.s 			page 6


  53              		.loc 1 47 5 is_stmt 1
  54              	.LBB14:
  55              	.LBB15:
  56              		.file 3 "src/../h/ccb.hpp"
   1:src/../h/ccb.hpp **** //
   2:src/../h/ccb.hpp **** // Created by os on 9/26/25.
   3:src/../h/ccb.hpp **** //
   4:src/../h/ccb.hpp **** 
   5:src/../h/ccb.hpp **** #ifndef PROJECT_BASE_V1_1_CCB_HPP
   6:src/../h/ccb.hpp **** #define PROJECT_BASE_V1_1_CCB_HPP
   7:src/../h/ccb.hpp **** 
   8:src/../h/ccb.hpp **** #include "../lib/hw.h"
   9:src/../h/ccb.hpp **** #include "Scheduler.hpp"
  10:src/../h/ccb.hpp **** 
  11:src/../h/ccb.hpp **** class CCB {
  12:src/../h/ccb.hpp **** public:
  13:src/../h/ccb.hpp **** 
  14:src/../h/ccb.hpp ****     ~CCB() {delete[] stack;}
  15:src/../h/ccb.hpp **** 
  16:src/../h/ccb.hpp ****     bool isFinished() const { return finished; }
  17:src/../h/ccb.hpp **** 
  18:src/../h/ccb.hpp ****     void setFinished(bool finished) {
  19:src/../h/ccb.hpp ****         CCB::finished = finished;
  57              		.loc 3 19 9
  58              		.loc 3 19 23 is_stmt 0
  59 0030 97070000 		ld	a5,_ZN3CCB7runningE
  59      83B70700 
  60 0038 13071000 		li	a4,1
  61 003c 2388E702 		sb	a4,48(a5)
  62              	.LVL3:
  63              	.LBE15:
  64              	.LBE14:
  48:src/ccb.cpp   ****     thread_exit(); // ne vraća se
  65              		.loc 1 48 5 is_stmt 1
  66              		.loc 1 48 16 is_stmt 0
  67 0040 97000000 		call	_Z11thread_exitv
  67      E7800000 
  68              	.LVL4:
  49:src/ccb.cpp   **** }
  69              		.loc 1 49 1
  70 0048 83308100 		ld	ra,8(sp)
  71              		.cfi_restore 1
  72 004c 03340100 		ld	s0,0(sp)
  73              		.cfi_restore 8
  74              		.cfi_def_cfa 2, 16
  75 0050 13010101 		addi	sp,sp,16
  76              		.cfi_def_cfa_offset 0
  77 0054 67800000 		jr	ra
  78              		.cfi_endproc
  79              	.LFE43:
  81              		.align	2
  82              		.globl	_ZN3CCB5yieldEv
  84              	_ZN3CCB5yieldEv:
  85              	.LFB40:
  13:src/ccb.cpp   ****     thread_dispatch();
  86              		.loc 1 13 19 is_stmt 1
  87              		.cfi_startproc
GAS LISTING /tmp/ccNJEbMZ.s 			page 7


  88 0058 130101FF 		addi	sp,sp,-16
  89              		.cfi_def_cfa_offset 16
  90 005c 23341100 		sd	ra,8(sp)
  91 0060 23308100 		sd	s0,0(sp)
  92              		.cfi_offset 1, -8
  93              		.cfi_offset 8, -16
  94 0064 13040101 		addi	s0,sp,16
  95              		.cfi_def_cfa 8, 0
  14:src/ccb.cpp   **** }
  96              		.loc 1 14 5
  14:src/ccb.cpp   **** }
  97              		.loc 1 14 20 is_stmt 0
  98 0068 97000000 		call	_Z15thread_dispatchv
  98      E7800000 
  99              	.LVL5:
  15:src/ccb.cpp   **** 
 100              		.loc 1 15 1
 101 0070 83308100 		ld	ra,8(sp)
 102              		.cfi_restore 1
 103 0074 03340100 		ld	s0,0(sp)
 104              		.cfi_restore 8
 105              		.cfi_def_cfa 2, 16
 106 0078 13010101 		addi	sp,sp,16
 107              		.cfi_def_cfa_offset 0
 108 007c 67800000 		jr	ra
 109              		.cfi_endproc
 110              	.LFE40:
 112              		.align	2
 113              		.globl	_ZN3CCB8dispatchEv
 115              	_ZN3CCB8dispatchEv:
 116              	.LFB41:
  17:src/ccb.cpp   ****     CCB *old = running;
 117              		.loc 1 17 22 is_stmt 1
 118              		.cfi_startproc
 119 0080 130101FE 		addi	sp,sp,-32
 120              		.cfi_def_cfa_offset 32
 121 0084 233C1100 		sd	ra,24(sp)
 122 0088 23388100 		sd	s0,16(sp)
 123 008c 23349100 		sd	s1,8(sp)
 124              		.cfi_offset 1, -8
 125              		.cfi_offset 8, -16
 126              		.cfi_offset 9, -24
 127 0090 13040102 		addi	s0,sp,32
 128              		.cfi_def_cfa 8, 0
  18:src/ccb.cpp   ****     if (old != CCB::mainThread && !old->isFinished()) {
 129              		.loc 1 18 5
  18:src/ccb.cpp   ****     if (old != CCB::mainThread && !old->isFinished()) {
 130              		.loc 1 18 10 is_stmt 0
 131 0094 97040000 		ld	s1,_ZN3CCB7runningE
 131      83B40400 
 132              	.LVL6:
  19:src/ccb.cpp   ****         Scheduler::put(old);
 133              		.loc 1 19 5 is_stmt 1
  19:src/ccb.cpp   ****         Scheduler::put(old);
 134              		.loc 1 19 13 is_stmt 0
 135 009c 97070000 		ld	a5,_ZN3CCB10mainThreadE
 135      83B70700 
GAS LISTING /tmp/ccNJEbMZ.s 			page 8


  19:src/ccb.cpp   ****         Scheduler::put(old);
 136              		.loc 1 19 32
 137 00a4 63869700 		beq	a5,s1,.L7
 138              	.LVL7:
 139              	.LBB16:
 140              	.LBB17:
  16:src/../h/ccb.hpp **** 
 141              		.loc 3 16 31 is_stmt 1
  16:src/../h/ccb.hpp **** 
 142              		.loc 3 16 38 is_stmt 0
 143 00a8 83C70403 		lbu	a5,48(s1)
 144              	.LVL8:
 145              	.LBE17:
 146              	.LBE16:
  19:src/ccb.cpp   ****         Scheduler::put(old);
 147              		.loc 1 19 32
 148 00ac 63840704 		beqz	a5,.L11
 149              	.L7:
  23:src/ccb.cpp   ****     if (!running) running = CCB::mainThread;
 150              		.loc 1 23 5 is_stmt 1
  23:src/ccb.cpp   ****     if (!running) running = CCB::mainThread;
 151              		.loc 1 23 29 is_stmt 0
 152 00b0 97000000 		call	_ZN9Scheduler3getEv
 152      E7800000 
 153              	.LVL9:
  23:src/ccb.cpp   ****     if (!running) running = CCB::mainThread;
 154              		.loc 1 23 13
 155 00b8 97070000 		sd	a0,_ZN3CCB7runningE,a5
 155      23B0A700 
  24:src/ccb.cpp   **** 
 156              		.loc 1 24 5 is_stmt 1
 157 00c0 63020504 		beqz	a0,.L12
 158              	.L8:
  26:src/ccb.cpp   ****         contextSwitch(old->getContext(), running->getContext());
 159              		.loc 1 26 5
  26:src/ccb.cpp   ****         contextSwitch(old->getContext(), running->getContext());
 160              		.loc 1 26 13 is_stmt 0
 161 00c4 97050000 		ld	a1,_ZN3CCB7runningE
 161      83B50500 
  26:src/ccb.cpp   ****         contextSwitch(old->getContext(), running->getContext());
 162              		.loc 1 26 5
 163 00cc 638A9500 		beq	a1,s1,.L6
  27:src/ccb.cpp   ****     }
 164              		.loc 1 27 9 is_stmt 1
 165              	.LVL10:
 166              	.LBB18:
 167              	.LBB19:
  20:src/../h/ccb.hpp ****     }
  21:src/../h/ccb.hpp **** 
  22:src/../h/ccb.hpp ****     using Body = void(*)(void*);
  23:src/../h/ccb.hpp **** 
  24:src/../h/ccb.hpp ****     static CCB *createCoroutine(Body body, void* arg);
  25:src/../h/ccb.hpp **** 
  26:src/../h/ccb.hpp **** 
  27:src/../h/ccb.hpp ****     static void yield();
  28:src/../h/ccb.hpp **** 
  29:src/../h/ccb.hpp ****     static CCB *running;
GAS LISTING /tmp/ccNJEbMZ.s 			page 9


  30:src/../h/ccb.hpp ****     static CCB* mainThread;
  31:src/../h/ccb.hpp **** 
  32:src/../h/ccb.hpp ****     static void dispatch();
  33:src/../h/ccb.hpp **** 
  34:src/../h/ccb.hpp ****     time_t getSleepTime() const { return sleepTime; }
  35:src/../h/ccb.hpp **** 
  36:src/../h/ccb.hpp ****     void setSleepTime(time_t time) { sleepTime = time; }
  37:src/../h/ccb.hpp **** 
  38:src/../h/ccb.hpp ****     struct Context
  39:src/../h/ccb.hpp ****     {
  40:src/../h/ccb.hpp ****         uint64 ra; // Return address
  41:src/../h/ccb.hpp ****         uint64 sp; // Stack pointer
  42:src/../h/ccb.hpp ****     };
  43:src/../h/ccb.hpp ****     static void contextSwitch(Context *oldContext, Context *runningContext);
  44:src/../h/ccb.hpp **** 
  45:src/../h/ccb.hpp ****     Context* getContext() { return &context; }
 168              		.loc 3 45 29
 169              	.LBE19:
 170              	.LBE18:
 171              	.LBB20:
 172              	.LBB21:
 173              		.loc 3 45 29
 174              	.LBE21:
 175              	.LBE20:
  27:src/ccb.cpp   ****     }
 176              		.loc 1 27 22 is_stmt 0
 177 00d0 93850502 		addi	a1,a1,32
 178 00d4 13850402 		addi	a0,s1,32
 179 00d8 97000000 		call	_ZN3CCB13contextSwitchEPNS_7ContextES1_
 179      E7800000 
 180              	.LVL11:
 181              	.L6:
  29:src/ccb.cpp   **** 
 182              		.loc 1 29 1
 183 00e0 83308101 		ld	ra,24(sp)
 184              		.cfi_remember_state
 185              		.cfi_restore 1
 186 00e4 03340101 		ld	s0,16(sp)
 187              		.cfi_restore 8
 188              		.cfi_def_cfa 2, 32
 189 00e8 83348100 		ld	s1,8(sp)
 190              		.cfi_restore 9
 191              	.LVL12:
 192 00ec 13010102 		addi	sp,sp,32
 193              		.cfi_def_cfa_offset 0
 194 00f0 67800000 		jr	ra
 195              	.LVL13:
 196              	.L11:
 197              		.cfi_restore_state
  20:src/ccb.cpp   ****     }
 198              		.loc 1 20 9 is_stmt 1
  20:src/ccb.cpp   ****     }
 199              		.loc 1 20 23 is_stmt 0
 200 00f4 13850400 		mv	a0,s1
 201 00f8 97000000 		call	_ZN9Scheduler3putEP3CCB
 201      E7800000 
 202              	.LVL14:
GAS LISTING /tmp/ccNJEbMZ.s 			page 10


 203 0100 6FF01FFB 		j	.L7
 204              	.L12:
  24:src/ccb.cpp   **** 
 205              		.loc 1 24 19 is_stmt 1 discriminator 1
  24:src/ccb.cpp   **** 
 206              		.loc 1 24 27 is_stmt 0 discriminator 1
 207 0104 97070000 		ld	a5,_ZN3CCB10mainThreadE
 207      83B70700 
 208 010c 17070000 		sd	a5,_ZN3CCB7runningE,a4
 208      2330F700 
 209 0114 6FF01FFB 		j	.L8
 210              		.cfi_endproc
 211              	.LFE41:
 213              		.align	2
 214              		.globl	_ZN3CCB15createCoroutineEPFvPvES0_
 216              	_ZN3CCB15createCoroutineEPFvPvES0_:
 217              	.LFB42:
  31:src/ccb.cpp   ****     CCB* ccb = new CCB(body, arg);
 218              		.loc 1 31 49 is_stmt 1
 219              		.cfi_startproc
 220              		.cfi_personality 0x9b,DW.ref.__gxx_personality_v0
 221              		.cfi_lsda 0x1b,.LLSDA42
 222              	.LVL15:
 223 0118 130101FD 		addi	sp,sp,-48
 224              		.cfi_def_cfa_offset 48
 225 011c 23341102 		sd	ra,40(sp)
 226 0120 23308102 		sd	s0,32(sp)
 227 0124 233C9100 		sd	s1,24(sp)
 228 0128 23382101 		sd	s2,16(sp)
 229 012c 23343101 		sd	s3,8(sp)
 230              		.cfi_offset 1, -8
 231              		.cfi_offset 8, -16
 232              		.cfi_offset 9, -24
 233              		.cfi_offset 18, -32
 234              		.cfi_offset 19, -40
 235 0130 13040103 		addi	s0,sp,48
 236              		.cfi_def_cfa 8, 0
 237 0134 13090500 		mv	s2,a0
 238 0138 93890500 		mv	s3,a1
  32:src/ccb.cpp   ****     if (ccb && body) {
 239              		.loc 1 32 5
  32:src/ccb.cpp   ****     if (ccb && body) {
 240              		.loc 1 32 33 is_stmt 0
 241 013c 13058003 		li	a0,56
 242              	.LVL16:
 243              	.LEHB0:
 244 0140 97000000 		call	_Znwm
 244      E7800000 
 245              	.LVL17:
 246              	.LEHE0:
 247 0148 93040500 		mv	s1,a0
 248              	.LVL18:
 249              	.LBB25:
 250              	.LBB26:
  46:src/../h/ccb.hpp **** 
  47:src/../h/ccb.hpp **** private:
  48:src/../h/ccb.hpp **** 
GAS LISTING /tmp/ccNJEbMZ.s 			page 11


  49:src/../h/ccb.hpp ****     time_t sleepTime = 0;
  50:src/../h/ccb.hpp **** 
  51:src/../h/ccb.hpp ****     static void coroutineWrapper();
  52:src/../h/ccb.hpp **** 
  53:src/../h/ccb.hpp ****     explicit CCB(Body body, void* arg) :
  54:src/../h/ccb.hpp ****             body(body),
  55:src/../h/ccb.hpp ****             arg(arg),
  56:src/../h/ccb.hpp ****             stack(body != nullptr ? new uint64[STACK_SIZE] : nullptr),
  57:src/../h/ccb.hpp ****             context({
  58:src/../h/ccb.hpp ****                             body != nullptr ? (uint64)&coroutineWrapper : 0,
  59:src/../h/ccb.hpp ****                             stack != nullptr ? (uint64)&stack[STACK_SIZE] : 0
  60:src/../h/ccb.hpp ****                     }),
  61:src/../h/ccb.hpp ****             finished(false)
 251              		.loc 3 61 27
 252 014c 23300500 		sd	zero,0(a0)
 253 0150 23342501 		sd	s2,8(a0)
 254 0154 23383501 		sd	s3,16(a0)
  56:src/../h/ccb.hpp ****             context({
 255              		.loc 3 56 35
 256 0158 630A0900 		beqz	s2,.L20
  56:src/../h/ccb.hpp ****             context({
 257              		.loc 3 56 58
 258 015c 37250000 		li	a0,8192
 259              	.LEHB1:
 260 0160 97000000 		call	_Znam
 260      E7800000 
 261              	.LVL19:
 262 0168 6F008000 		j	.L14
 263              	.L20:
  56:src/../h/ccb.hpp ****             context({
 264              		.loc 3 56 35
 265 016c 13050000 		li	a0,0
 266              	.L14:
 267              		.loc 3 61 27
 268 0170 23BCA400 		sd	a0,24(s1)
  58:src/../h/ccb.hpp ****                             stack != nullptr ? (uint64)&stack[STACK_SIZE] : 0
 269              		.loc 3 58 45
 270 0174 630C0902 		beqz	s2,.L21
 271 0178 97070000 		lla	a5,_ZN3CCB16coroutineWrapperEv
 271      93870700 
 272              	.L15:
 273              		.loc 3 61 27
 274 0180 23B0F402 		sd	a5,32(s1)
  59:src/../h/ccb.hpp ****                     }),
 275              		.loc 3 59 46
 276 0184 63080502 		beqz	a0,.L22
  59:src/../h/ccb.hpp ****                     }),
 277              		.loc 3 59 56
 278 0188 B7270000 		li	a5,8192
 279 018c 3305F500 		add	a0,a0,a5
 280              	.L16:
 281              		.loc 3 61 27
 282 0190 23B4A402 		sd	a0,40(s1)
 283 0194 23880402 		sb	zero,48(s1)
  62:src/../h/ccb.hpp ****     {
  63:src/../h/ccb.hpp ****         if (body != nullptr) Scheduler::put(this);
 284              		.loc 3 63 9 is_stmt 1
GAS LISTING /tmp/ccNJEbMZ.s 			page 12


 285 0198 63020902 		beqz	s2,.L17
 286              		.loc 3 63 30
 287              		.loc 3 63 44 is_stmt 0
 288 019c 13850400 		mv	a0,s1
 289 01a0 97000000 		call	_ZN9Scheduler3putEP3CCB
 289      E7800000 
 290              	.LVL20:
 291              	.LEHE1:
 292 01a8 6F004001 		j	.L17
 293              	.L21:
  58:src/../h/ccb.hpp ****                             stack != nullptr ? (uint64)&stack[STACK_SIZE] : 0
 294              		.loc 3 58 45
 295 01ac 93070000 		li	a5,0
 296 01b0 6FF01FFD 		j	.L15
 297              	.L22:
  59:src/../h/ccb.hpp ****                     }),
 298              		.loc 3 59 46
 299 01b4 13050000 		li	a0,0
 300 01b8 6FF09FFD 		j	.L16
 301              	.L17:
 302              	.LVL21:
 303              	.LBE26:
 304              	.LBE25:
  33:src/ccb.cpp   ****         Scheduler::put(ccb);
 305              		.loc 1 33 5 is_stmt 1
 306 01bc 638A0400 		beqz	s1,.L13
  33:src/ccb.cpp   ****         Scheduler::put(ccb);
 307              		.loc 1 33 13 is_stmt 0 discriminator 1
 308 01c0 63080900 		beqz	s2,.L13
  34:src/ccb.cpp   ****     }
 309              		.loc 1 34 9 is_stmt 1
  34:src/ccb.cpp   ****     }
 310              		.loc 1 34 23 is_stmt 0
 311 01c4 13850400 		mv	a0,s1
 312              	.LEHB2:
 313 01c8 97000000 		call	_ZN9Scheduler3putEP3CCB
 313      E7800000 
 314              	.LVL22:
  36:src/ccb.cpp   **** }
 315              		.loc 1 36 5 is_stmt 1
 316              	.L13:
  37:src/ccb.cpp   **** 
 317              		.loc 1 37 1 is_stmt 0
 318 01d0 13850400 		mv	a0,s1
 319 01d4 83308102 		ld	ra,40(sp)
 320              		.cfi_remember_state
 321              		.cfi_restore 1
 322 01d8 03340102 		ld	s0,32(sp)
 323              		.cfi_restore 8
 324              		.cfi_def_cfa 2, 48
 325 01dc 83348101 		ld	s1,24(sp)
 326              		.cfi_restore 9
 327              	.LVL23:
 328 01e0 03390101 		ld	s2,16(sp)
 329              		.cfi_restore 18
 330              	.LVL24:
 331 01e4 83398100 		ld	s3,8(sp)
GAS LISTING /tmp/ccNJEbMZ.s 			page 13


 332              		.cfi_restore 19
 333              	.LVL25:
 334 01e8 13010103 		addi	sp,sp,48
 335              		.cfi_def_cfa_offset 0
 336 01ec 67800000 		jr	ra
 337              	.LVL26:
 338              	.L23:
 339              		.cfi_restore_state
 340 01f0 13090500 		mv	s2,a0
 341              	.LVL27:
  32:src/ccb.cpp   ****     if (ccb && body) {
 342              		.loc 1 32 33
 343 01f4 13850400 		mv	a0,s1
 344 01f8 97000000 		call	_ZdlPv
 344      E7800000 
 345              	.LVL28:
 346 0200 13050900 		mv	a0,s2
 347 0204 97000000 		call	_Unwind_Resume
 347      E7800000 
 348              	.LVL29:
 349              	.LEHE2:
 350              		.cfi_endproc
 351              	.LFE42:
 352              		.globl	__gxx_personality_v0
 353              		.section	.gcc_except_table,"aw",@progbits
 354              	.LLSDA42:
 355 0000 FF       		.byte	0xff
 356 0001 FF       		.byte	0xff
 357 0002 03       		.byte	0x3
 358 0003 27       		.byte	0x27
 359 0004 00000000 		.4byte	.LEHB0-.LFB42
 360 0008 00000000 		.4byte	.LEHE0-.LEHB0
 361 000c 00000000 		.4byte	0
 362 0010 00       		.byte	0
 363 0011 00000000 		.4byte	.LEHB1-.LFB42
 364 0015 00000000 		.4byte	.LEHE1-.LEHB1
 365 0019 00000000 		.4byte	.L23-.LFB42
 366 001d 00       		.byte	0
 367 001e 00000000 		.4byte	.LEHB2-.LFB42
 368 0022 00000000 		.4byte	.LEHE2-.LEHB2
 369 0026 00000000 		.4byte	0
 370 002a 00       		.byte	0
 371              		.text
 373              		.globl	_ZN3CCB10mainThreadE
 374              		.globl	_ZN3CCB7runningE
 375              		.section	.sbss,"aw",@nobits
 376              		.align	3
 379              	_ZN3CCB10mainThreadE:
 380 0000 00000000 		.zero	8
 380      00000000 
 383              	_ZN3CCB7runningE:
 384 0008 00000000 		.zero	8
 384      00000000 
 385              		.text
 386              	.Letext0:
 387              		.file 4 "src/../h/../lib/hw.h"
 388              		.file 5 "src/../h/Scheduler.hpp"
GAS LISTING /tmp/ccNJEbMZ.s 			page 14


 389              		.file 6 "src/../h/syscall_c.hpp"
 2815              		.align	3
 2818              	DW.ref.__gxx_personality_v0:
 2819 0000 00000000 		.dword	__gxx_personality_v0
 2819      00000000 
 2820              		.ident	"GCC: () 9.3.0"
GAS LISTING /tmp/ccNJEbMZ.s 			page 15


DEFINED SYMBOLS
                            *ABS*:0000000000000000 ccb.cpp
     /tmp/ccNJEbMZ.s:12     .text:0000000000000000 _ZN3CCB16coroutineWrapperEv
     /tmp/ccNJEbMZ.s:16     .text:0000000000000000 .L0 
     /tmp/ccNJEbMZ.s:17     .text:0000000000000000 .L0 
     /tmp/ccNJEbMZ.s:18     .text:0000000000000004 .L0 
     /tmp/ccNJEbMZ.s:21     .text:000000000000000c .L0 
     /tmp/ccNJEbMZ.s:22     .text:000000000000000c .L0 
     /tmp/ccNJEbMZ.s:24     .text:0000000000000010 .L0 
     /tmp/ccNJEbMZ.s:30     .text:0000000000000010 .L0 
     /tmp/ccNJEbMZ.s:31     .text:0000000000000010 .L0 
     /tmp/ccNJEbMZ.s:32     .text:0000000000000010 .L0 
     /tmp/ccNJEbMZ.s:42     .text:0000000000000018 .L0 
     /tmp/ccNJEbMZ.s:383    .sbss:0000000000000008 _ZN3CCB7runningE
     /tmp/ccNJEbMZ.s:43     .text:0000000000000018 .L0 
     /tmp/ccNJEbMZ.s:46     .text:0000000000000024 .L0 
     /tmp/ccNJEbMZ.s:48     .text:0000000000000028 .L0 
     /tmp/ccNJEbMZ.s:49     .text:0000000000000028 .L0 
     /tmp/ccNJEbMZ.s:57     .text:0000000000000030 .L0 
     /tmp/ccNJEbMZ.s:58     .text:0000000000000030 .L0 
     /tmp/ccNJEbMZ.s:59     .text:0000000000000030 .L0 
     /tmp/ccNJEbMZ.s:66     .text:0000000000000040 .L0 
     /tmp/ccNJEbMZ.s:67     .text:0000000000000040 .L0 
     /tmp/ccNJEbMZ.s:70     .text:0000000000000048 .L0 
     /tmp/ccNJEbMZ.s:71     .text:000000000000004c .L0 
     /tmp/ccNJEbMZ.s:73     .text:0000000000000050 .L0 
     /tmp/ccNJEbMZ.s:74     .text:0000000000000050 .L0 
     /tmp/ccNJEbMZ.s:76     .text:0000000000000054 .L0 
     /tmp/ccNJEbMZ.s:78     .text:0000000000000058 .L0 
     /tmp/ccNJEbMZ.s:84     .text:0000000000000058 _ZN3CCB5yieldEv
     /tmp/ccNJEbMZ.s:87     .text:0000000000000058 .L0 
     /tmp/ccNJEbMZ.s:88     .text:0000000000000058 .L0 
     /tmp/ccNJEbMZ.s:89     .text:000000000000005c .L0 
     /tmp/ccNJEbMZ.s:92     .text:0000000000000064 .L0 
     /tmp/ccNJEbMZ.s:93     .text:0000000000000064 .L0 
     /tmp/ccNJEbMZ.s:95     .text:0000000000000068 .L0 
     /tmp/ccNJEbMZ.s:97     .text:0000000000000068 .L0 
     /tmp/ccNJEbMZ.s:98     .text:0000000000000068 .L0 
     /tmp/ccNJEbMZ.s:101    .text:0000000000000070 .L0 
     /tmp/ccNJEbMZ.s:102    .text:0000000000000074 .L0 
     /tmp/ccNJEbMZ.s:104    .text:0000000000000078 .L0 
     /tmp/ccNJEbMZ.s:105    .text:0000000000000078 .L0 
     /tmp/ccNJEbMZ.s:107    .text:000000000000007c .L0 
     /tmp/ccNJEbMZ.s:109    .text:0000000000000080 .L0 
     /tmp/ccNJEbMZ.s:115    .text:0000000000000080 _ZN3CCB8dispatchEv
     /tmp/ccNJEbMZ.s:118    .text:0000000000000080 .L0 
     /tmp/ccNJEbMZ.s:119    .text:0000000000000080 .L0 
     /tmp/ccNJEbMZ.s:120    .text:0000000000000084 .L0 
     /tmp/ccNJEbMZ.s:124    .text:0000000000000090 .L0 
     /tmp/ccNJEbMZ.s:125    .text:0000000000000090 .L0 
     /tmp/ccNJEbMZ.s:126    .text:0000000000000090 .L0 
     /tmp/ccNJEbMZ.s:128    .text:0000000000000094 .L0 
     /tmp/ccNJEbMZ.s:130    .text:0000000000000094 .L0 
     /tmp/ccNJEbMZ.s:131    .text:0000000000000094 .L0 
     /tmp/ccNJEbMZ.s:134    .text:000000000000009c .L0 
     /tmp/ccNJEbMZ.s:379    .sbss:0000000000000000 _ZN3CCB10mainThreadE
     /tmp/ccNJEbMZ.s:135    .text:000000000000009c .L0 
GAS LISTING /tmp/ccNJEbMZ.s 			page 16


     /tmp/ccNJEbMZ.s:137    .text:00000000000000a4 .L0 
     /tmp/ccNJEbMZ.s:142    .text:00000000000000a8 .L0 
     /tmp/ccNJEbMZ.s:143    .text:00000000000000a8 .L0 
     /tmp/ccNJEbMZ.s:148    .text:00000000000000ac .L0 
     /tmp/ccNJEbMZ.s:151    .text:00000000000000b0 .L0 
     /tmp/ccNJEbMZ.s:152    .text:00000000000000b0 .L0 
     /tmp/ccNJEbMZ.s:155    .text:00000000000000b8 .L0 
     /tmp/ccNJEbMZ.s:157    .text:00000000000000c0 .L0 
     /tmp/ccNJEbMZ.s:160    .text:00000000000000c4 .L0 
     /tmp/ccNJEbMZ.s:161    .text:00000000000000c4 .L0 
     /tmp/ccNJEbMZ.s:163    .text:00000000000000cc .L0 
     /tmp/ccNJEbMZ.s:168    .text:00000000000000d0 .L0 
     /tmp/ccNJEbMZ.s:173    .text:00000000000000d0 .L0 
     /tmp/ccNJEbMZ.s:176    .text:00000000000000d0 .L0 
     /tmp/ccNJEbMZ.s:177    .text:00000000000000d0 .L0 
     /tmp/ccNJEbMZ.s:183    .text:00000000000000e0 .L0 
     /tmp/ccNJEbMZ.s:184    .text:00000000000000e4 .L0 
     /tmp/ccNJEbMZ.s:185    .text:00000000000000e4 .L0 
     /tmp/ccNJEbMZ.s:187    .text:00000000000000e8 .L0 
     /tmp/ccNJEbMZ.s:188    .text:00000000000000e8 .L0 
     /tmp/ccNJEbMZ.s:190    .text:00000000000000ec .L0 
     /tmp/ccNJEbMZ.s:193    .text:00000000000000f0 .L0 
     /tmp/ccNJEbMZ.s:197    .text:00000000000000f4 .L0 
     /tmp/ccNJEbMZ.s:199    .text:00000000000000f4 .L0 
     /tmp/ccNJEbMZ.s:200    .text:00000000000000f4 .L0 
     /tmp/ccNJEbMZ.s:206    .text:0000000000000104 .L0 
     /tmp/ccNJEbMZ.s:207    .text:0000000000000104 .L0 
     /tmp/ccNJEbMZ.s:210    .text:0000000000000118 .L0 
     /tmp/ccNJEbMZ.s:216    .text:0000000000000118 _ZN3CCB15createCoroutineEPFvPvES0_
     /tmp/ccNJEbMZ.s:219    .text:0000000000000118 .L0 
     /tmp/ccNJEbMZ.s:2818   .sdata.DW.ref.__gxx_personality_v0:0000000000000000 DW.ref.__gxx_personality_v0
     /tmp/ccNJEbMZ.s:223    .text:0000000000000118 .L0 
     /tmp/ccNJEbMZ.s:224    .text:000000000000011c .L0 
     /tmp/ccNJEbMZ.s:230    .text:0000000000000130 .L0 
     /tmp/ccNJEbMZ.s:231    .text:0000000000000130 .L0 
     /tmp/ccNJEbMZ.s:232    .text:0000000000000130 .L0 
     /tmp/ccNJEbMZ.s:233    .text:0000000000000130 .L0 
     /tmp/ccNJEbMZ.s:234    .text:0000000000000130 .L0 
     /tmp/ccNJEbMZ.s:236    .text:0000000000000134 .L0 
     /tmp/ccNJEbMZ.s:240    .text:000000000000013c .L0 
     /tmp/ccNJEbMZ.s:241    .text:000000000000013c .L0 
     /tmp/ccNJEbMZ.s:252    .text:000000000000014c .L0 
     /tmp/ccNJEbMZ.s:256    .text:0000000000000158 .L0 
     /tmp/ccNJEbMZ.s:258    .text:000000000000015c .L0 
     /tmp/ccNJEbMZ.s:265    .text:000000000000016c .L0 
     /tmp/ccNJEbMZ.s:268    .text:0000000000000170 .L0 
     /tmp/ccNJEbMZ.s:270    .text:0000000000000174 .L0 
     /tmp/ccNJEbMZ.s:274    .text:0000000000000180 .L0 
     /tmp/ccNJEbMZ.s:276    .text:0000000000000184 .L0 
     /tmp/ccNJEbMZ.s:278    .text:0000000000000188 .L0 
     /tmp/ccNJEbMZ.s:282    .text:0000000000000190 .L0 
     /tmp/ccNJEbMZ.s:285    .text:0000000000000198 .L0 
     /tmp/ccNJEbMZ.s:287    .text:000000000000019c .L0 
     /tmp/ccNJEbMZ.s:288    .text:000000000000019c .L0 
     /tmp/ccNJEbMZ.s:295    .text:00000000000001ac .L0 
     /tmp/ccNJEbMZ.s:299    .text:00000000000001b4 .L0 
     /tmp/ccNJEbMZ.s:306    .text:00000000000001bc .L0 
GAS LISTING /tmp/ccNJEbMZ.s 			page 17


     /tmp/ccNJEbMZ.s:308    .text:00000000000001c0 .L0 
     /tmp/ccNJEbMZ.s:310    .text:00000000000001c4 .L0 
     /tmp/ccNJEbMZ.s:311    .text:00000000000001c4 .L0 
     /tmp/ccNJEbMZ.s:317    .text:00000000000001d0 .L0 
     /tmp/ccNJEbMZ.s:318    .text:00000000000001d0 .L0 
     /tmp/ccNJEbMZ.s:320    .text:00000000000001d8 .L0 
     /tmp/ccNJEbMZ.s:321    .text:00000000000001d8 .L0 
     /tmp/ccNJEbMZ.s:323    .text:00000000000001dc .L0 
     /tmp/ccNJEbMZ.s:324    .text:00000000000001dc .L0 
     /tmp/ccNJEbMZ.s:326    .text:00000000000001e0 .L0 
     /tmp/ccNJEbMZ.s:329    .text:00000000000001e4 .L0 
     /tmp/ccNJEbMZ.s:332    .text:00000000000001e8 .L0 
     /tmp/ccNJEbMZ.s:335    .text:00000000000001ec .L0 
     /tmp/ccNJEbMZ.s:339    .text:00000000000001f0 .L0 
     /tmp/ccNJEbMZ.s:343    .text:00000000000001f4 .L0 
     /tmp/ccNJEbMZ.s:350    .text:000000000000020c .L0 
     /tmp/ccNJEbMZ.s:390    .text:000000000000020c .L0 
     /tmp/ccNJEbMZ.s:43     .text:0000000000000018 .L0 
     /tmp/ccNJEbMZ.s:59     .text:0000000000000030 .L0 
     /tmp/ccNJEbMZ.s:131    .text:0000000000000094 .L0 
     /tmp/ccNJEbMZ.s:135    .text:000000000000009c .L0 
     /tmp/ccNJEbMZ.s:155    .text:00000000000000b8 .L0 
     /tmp/ccNJEbMZ.s:161    .text:00000000000000c4 .L0 
     /tmp/ccNJEbMZ.s:207    .text:0000000000000104 .L0 
     /tmp/ccNJEbMZ.s:208    .text:000000000000010c .L0 
     /tmp/ccNJEbMZ.s:271    .text:0000000000000178 .L0 
     /tmp/ccNJEbMZ.s:52     .text:0000000000000030 .L2
     /tmp/ccNJEbMZ.s:149    .text:00000000000000b0 .L7
     /tmp/ccNJEbMZ.s:196    .text:00000000000000f4 .L11
     /tmp/ccNJEbMZ.s:204    .text:0000000000000104 .L12
     /tmp/ccNJEbMZ.s:181    .text:00000000000000e0 .L6
     /tmp/ccNJEbMZ.s:158    .text:00000000000000c4 .L8
     /tmp/ccNJEbMZ.s:263    .text:000000000000016c .L20
     /tmp/ccNJEbMZ.s:266    .text:0000000000000170 .L14
     /tmp/ccNJEbMZ.s:293    .text:00000000000001ac .L21
     /tmp/ccNJEbMZ.s:297    .text:00000000000001b4 .L22
     /tmp/ccNJEbMZ.s:301    .text:00000000000001bc .L17
     /tmp/ccNJEbMZ.s:272    .text:0000000000000180 .L15
     /tmp/ccNJEbMZ.s:280    .text:0000000000000190 .L16
     /tmp/ccNJEbMZ.s:316    .text:00000000000001d0 .L13
     /tmp/ccNJEbMZ.s:243    .text:0000000000000140 .LEHB0
     /tmp/ccNJEbMZ.s:217    .text:0000000000000118 .LFB42
     /tmp/ccNJEbMZ.s:246    .text:0000000000000148 .LEHE0
     /tmp/ccNJEbMZ.s:259    .text:0000000000000160 .LEHB1
     /tmp/ccNJEbMZ.s:291    .text:00000000000001a8 .LEHE1
     /tmp/ccNJEbMZ.s:338    .text:00000000000001f0 .L23
     /tmp/ccNJEbMZ.s:312    .text:00000000000001c8 .LEHB2
     /tmp/ccNJEbMZ.s:349    .text:000000000000020c .LEHE2
     /tmp/ccNJEbMZ.s:1456   .debug_abbrev:0000000000000000 .Ldebug_abbrev0
     /tmp/ccNJEbMZ.s:2578   .debug_str:00000000000000c1 .LASF115
     /tmp/ccNJEbMZ.s:2748   .debug_str:0000000000000659 .LASF116
     /tmp/ccNJEbMZ.s:2608   .debug_str:000000000000023c .LASF117
     /tmp/ccNJEbMZ.s:8      .text:0000000000000000 .Ltext0
     /tmp/ccNJEbMZ.s:386    .text:000000000000020c .Letext0
     /tmp/ccNJEbMZ.s:2550   .debug_line:0000000000000000 .Ldebug_line0
     /tmp/ccNJEbMZ.s:2700   .debug_str:00000000000004fe .LASF0
     /tmp/ccNJEbMZ.s:2712   .debug_str:0000000000000550 .LASF1
GAS LISTING /tmp/ccNJEbMZ.s 			page 18


     /tmp/ccNJEbMZ.s:2686   .debug_str:0000000000000495 .LASF2
     /tmp/ccNJEbMZ.s:2656   .debug_str:00000000000003b1 .LASF4
     /tmp/ccNJEbMZ.s:2750   .debug_str:0000000000000665 .LASF3
     /tmp/ccNJEbMZ.s:2580   .debug_str:0000000000000185 .LASF5
     /tmp/ccNJEbMZ.s:2618   .debug_str:00000000000002a2 .LASF6
     /tmp/ccNJEbMZ.s:2716   .debug_str:0000000000000574 .LASF7
     /tmp/ccNJEbMZ.s:2698   .debug_str:00000000000004eb .LASF8
     /tmp/ccNJEbMZ.s:2780   .debug_str:000000000000074b .LASF9
     /tmp/ccNJEbMZ.s:2644   .debug_str:000000000000034c .LASF10
     /tmp/ccNJEbMZ.s:2728   .debug_str:00000000000005bd .LASF11
     /tmp/ccNJEbMZ.s:2772   .debug_str:0000000000000721 .LASF12
     /tmp/ccNJEbMZ.s:2584   .debug_str:0000000000000198 .LASF13
     /tmp/ccNJEbMZ.s:2558   .debug_str:000000000000003a .LASF14
     /tmp/ccNJEbMZ.s:2592   .debug_str:00000000000001d0 .LASF15
     /tmp/ccNJEbMZ.s:2738   .debug_str:0000000000000606 .LASF16
     /tmp/ccNJEbMZ.s:2610   .debug_str:000000000000025f .LASF17
     /tmp/ccNJEbMZ.s:2726   .debug_str:00000000000005b3 .LASF18
     /tmp/ccNJEbMZ.s:2654   .debug_str:000000000000039d .LASF118
     /tmp/ccNJEbMZ.s:2708   .debug_str:0000000000000532 .LASF119
     /tmp/ccNJEbMZ.s:2784   .debug_str:0000000000000773 .LASF120
     /tmp/ccNJEbMZ.s:2566   .debug_str:0000000000000076 .LASF121
     /tmp/ccNJEbMZ.s:2616   .debug_str:000000000000029d .LASF19
     /tmp/ccNJEbMZ.s:2802   .debug_str:000000000000080a .LASF21
     /tmp/ccNJEbMZ.s:2718   .debug_str:0000000000000587 .LASF31
     /tmp/ccNJEbMZ.s:2706   .debug_str:000000000000051b .LASF33
     /tmp/ccNJEbMZ.s:2688   .debug_str:00000000000004a3 .LASF20
     /tmp/ccNJEbMZ.s:2736   .debug_str:00000000000005ef .LASF22
     /tmp/ccNJEbMZ.s:2786   .debug_str:0000000000000787 .LASF23
     /tmp/ccNJEbMZ.s:2768   .debug_str:00000000000006ee .LASF24
     /tmp/ccNJEbMZ.s:2732   .debug_str:00000000000005df .LASF122
     /tmp/ccNJEbMZ.s:2740   .debug_str:000000000000061c .LASF27
     /tmp/ccNJEbMZ.s:2588   .debug_str:00000000000001b3 .LASF29
     /tmp/ccNJEbMZ.s:2626   .debug_str:00000000000002e2 .LASF25
     /tmp/ccNJEbMZ.s:2640   .debug_str:000000000000033b .LASF26
     /tmp/ccNJEbMZ.s:2704   .debug_str:0000000000000512 .LASF28
     /tmp/ccNJEbMZ.s:2752   .debug_str:0000000000000677 .LASF30
     /tmp/ccNJEbMZ.s:2744   .debug_str:0000000000000634 .LASF32
     /tmp/ccNJEbMZ.s:2612   .debug_str:0000000000000275 .LASF34
     /tmp/ccNJEbMZ.s:2590   .debug_str:00000000000001c3 .LASF35
     /tmp/ccNJEbMZ.s:2552   .debug_str:0000000000000000 .LASF36
     /tmp/ccNJEbMZ.s:2602   .debug_str:000000000000020e .LASF37
     /tmp/ccNJEbMZ.s:2670   .debug_str:0000000000000410 .LASF58
     /tmp/ccNJEbMZ.s:2586   .debug_str:00000000000001a8 .LASF38
     /tmp/ccNJEbMZ.s:2594   .debug_str:00000000000001dc .LASF39
     /tmp/ccNJEbMZ.s:2776   .debug_str:0000000000000737 .LASF40
     /tmp/ccNJEbMZ.s:2572   .debug_str:0000000000000090 .LASF123
     /tmp/ccNJEbMZ.s:2564   .debug_str:000000000000005a .LASF124
     /tmp/ccNJEbMZ.s:2692   .debug_str:00000000000004c2 .LASF125
     /tmp/ccNJEbMZ.s:2662   .debug_str:00000000000003d6 .LASF41
     /tmp/ccNJEbMZ.s:2598   .debug_str:00000000000001f8 .LASF42
     /tmp/ccNJEbMZ.s:2666   .debug_str:00000000000003e6 .LASF43
     /tmp/ccNJEbMZ.s:2660   .debug_str:00000000000003cd .LASF44
     /tmp/ccNJEbMZ.s:2674   .debug_str:000000000000043e .LASF126
     /tmp/ccNJEbMZ.s:2778   .debug_str:0000000000000741 .LASF127
     /tmp/ccNJEbMZ.s:2632   .debug_str:0000000000000306 .LASF45
     /tmp/ccNJEbMZ.s:2710   .debug_str:000000000000054a .LASF46
     /tmp/ccNJEbMZ.s:2614   .debug_str:000000000000028e .LASF128
GAS LISTING /tmp/ccNJEbMZ.s 			page 19


     /tmp/ccNJEbMZ.s:2604   .debug_str:000000000000021c .LASF47
     /tmp/ccNJEbMZ.s:2792   .debug_str:00000000000007b8 .LASF48
     /tmp/ccNJEbMZ.s:2582   .debug_str:000000000000018c .LASF49
     /tmp/ccNJEbMZ.s:2734   .debug_str:00000000000005e4 .LASF50
     /tmp/ccNJEbMZ.s:2798   .debug_str:00000000000007dd .LASF51
     /tmp/ccNJEbMZ.s:2576   .debug_str:00000000000000b3 .LASF52
     /tmp/ccNJEbMZ.s:2624   .debug_str:00000000000002c7 .LASF53
     /tmp/ccNJEbMZ.s:2762   .debug_str:00000000000006bc .LASF54
     /tmp/ccNJEbMZ.s:2556   .debug_str:0000000000000020 .LASF55
     /tmp/ccNJEbMZ.s:2560   .debug_str:000000000000004a .LASF56
     /tmp/ccNJEbMZ.s:2760   .debug_str:00000000000006a7 .LASF61
     /tmp/ccNJEbMZ.s:2622   .debug_str:00000000000002be .LASF57
     /tmp/ccNJEbMZ.s:2620   .debug_str:00000000000002a9 .LASF59
     /tmp/ccNJEbMZ.s:2754   .debug_str:000000000000068a .LASF60
     /tmp/ccNJEbMZ.s:2730   .debug_str:00000000000005cc .LASF62
     /tmp/ccNJEbMZ.s:2774   .debug_str:0000000000000730 .LASF63
     /tmp/ccNJEbMZ.s:2764   .debug_str:00000000000006c9 .LASF64
     /tmp/ccNJEbMZ.s:2638   .debug_str:0000000000000333 .LASF65
     /tmp/ccNJEbMZ.s:2630   .debug_str:00000000000002f2 .LASF66
     /tmp/ccNJEbMZ.s:2554   .debug_str:0000000000000018 .LASF67
     /tmp/ccNJEbMZ.s:2648   .debug_str:0000000000000370 .LASF68
     /tmp/ccNJEbMZ.s:2628   .debug_str:00000000000002ea .LASF69
     /tmp/ccNJEbMZ.s:2788   .debug_str:0000000000000797 .LASF70
     /tmp/ccNJEbMZ.s:2804   .debug_str:0000000000000816 .LASF71
     /tmp/ccNJEbMZ.s:2606   .debug_str:0000000000000228 .LASF72
     /tmp/ccNJEbMZ.s:2702   .debug_str:000000000000050b .LASF73
     /tmp/ccNJEbMZ.s:2794   .debug_str:00000000000007c5 .LASF74
     /tmp/ccNJEbMZ.s:2722   .debug_str:0000000000000599 .LASF75
     /tmp/ccNJEbMZ.s:2636   .debug_str:0000000000000320 .LASF76
     /tmp/ccNJEbMZ.s:2642   .debug_str:0000000000000346 .LASF77
     /tmp/ccNJEbMZ.s:2766   .debug_str:00000000000006dc .LASF78
     /tmp/ccNJEbMZ.s:2570   .debug_str:000000000000008a .LASF79
     /tmp/ccNJEbMZ.s:2810   .debug_str:0000000000000837 .LASF80
     /tmp/ccNJEbMZ.s:2696   .debug_str:00000000000004e0 .LASF81
     /tmp/ccNJEbMZ.s:2746   .debug_str:0000000000000641 .LASF82
     /tmp/ccNJEbMZ.s:2664   .debug_str:00000000000003db .LASF83
     /tmp/ccNJEbMZ.s:2676   .debug_str:0000000000000449 .LASF84
     /tmp/ccNJEbMZ.s:2650   .debug_str:0000000000000384 .LASF85
     /tmp/ccNJEbMZ.s:2680   .debug_str:0000000000000467 .LASF86
     /tmp/ccNJEbMZ.s:2694   .debug_str:00000000000004d6 .LASF87
     /tmp/ccNJEbMZ.s:2646   .debug_str:000000000000035a .LASF88
     /tmp/ccNJEbMZ.s:2672   .debug_str:0000000000000438 .LASF89
     /tmp/ccNJEbMZ.s:2574   .debug_str:00000000000000a1 .LASF90
     /tmp/ccNJEbMZ.s:2596   .debug_str:00000000000001f2 .LASF91
     /tmp/ccNJEbMZ.s:2742   .debug_str:0000000000000622 .LASF92
     /tmp/ccNJEbMZ.s:2720   .debug_str:0000000000000592 .LASF93
     /tmp/ccNJEbMZ.s:2724   .debug_str:00000000000005a0 .LASF94
     /tmp/ccNJEbMZ.s:2562   .debug_str:0000000000000053 .LASF95
     /tmp/ccNJEbMZ.s:2690   .debug_str:00000000000004af .LASF96
     /tmp/ccNJEbMZ.s:2658   .debug_str:00000000000003b8 .LASF97
     /tmp/ccNJEbMZ.s:2668   .debug_str:00000000000003ee .LASF98
     /tmp/ccNJEbMZ.s:2684   .debug_str:0000000000000484 .LASF99
     /tmp/ccNJEbMZ.s:2800   .debug_str:00000000000007f5 .LASF100
     /tmp/ccNJEbMZ.s:13     .text:0000000000000000 .LFB43
     /tmp/ccNJEbMZ.s:79     .text:0000000000000058 .LFE43
     /tmp/ccNJEbMZ.s:27     .text:0000000000000010 .LBB12
     /tmp/ccNJEbMZ.s:40     .text:0000000000000018 .LBE12
GAS LISTING /tmp/ccNJEbMZ.s 			page 20


     /tmp/ccNJEbMZ.s:2393   .debug_loc:0000000000000000 .LLST0
     /tmp/ccNJEbMZ.s:54     .text:0000000000000030 .LBB14
     /tmp/ccNJEbMZ.s:64     .text:0000000000000040 .LBE14
     /tmp/ccNJEbMZ.s:2401   .debug_loc:0000000000000024 .LLST1
     /tmp/ccNJEbMZ.s:2409   .debug_loc:0000000000000048 .LLST2
     /tmp/ccNJEbMZ.s:68     .text:0000000000000048 .LVL4
     /tmp/ccNJEbMZ.s:351    .text:000000000000020c .LFE42
     /tmp/ccNJEbMZ.s:2417   .debug_loc:0000000000000073 .LLST5
     /tmp/ccNJEbMZ.s:2446   .debug_loc:00000000000000e8 .LLST6
     /tmp/ccNJEbMZ.s:2468   .debug_loc:0000000000000147 .LLST7
     /tmp/ccNJEbMZ.s:249    .text:000000000000014c .LBB25
     /tmp/ccNJEbMZ.s:304    .text:00000000000001bc .LBE25
     /tmp/ccNJEbMZ.s:2479   .debug_loc:000000000000017d .LLST8
     /tmp/ccNJEbMZ.s:2490   .debug_loc:00000000000001b3 .LLST9
     /tmp/ccNJEbMZ.s:2508   .debug_loc:00000000000001ff .LLST10
     /tmp/ccNJEbMZ.s:261    .text:0000000000000168 .LVL19
     /tmp/ccNJEbMZ.s:290    .text:00000000000001a8 .LVL20
     /tmp/ccNJEbMZ.s:245    .text:0000000000000148 .LVL17
     /tmp/ccNJEbMZ.s:314    .text:00000000000001d0 .LVL22
     /tmp/ccNJEbMZ.s:345    .text:0000000000000200 .LVL28
     /tmp/ccNJEbMZ.s:348    .text:000000000000020c .LVL29
     /tmp/ccNJEbMZ.s:116    .text:0000000000000080 .LFB41
     /tmp/ccNJEbMZ.s:211    .text:0000000000000118 .LFE41
     /tmp/ccNJEbMZ.s:2519   .debug_loc:0000000000000235 .LLST3
     /tmp/ccNJEbMZ.s:139    .text:00000000000000a8 .LBB16
     /tmp/ccNJEbMZ.s:146    .text:00000000000000ac .LBE16
     /tmp/ccNJEbMZ.s:2530   .debug_loc:000000000000026b .LLST4
     /tmp/ccNJEbMZ.s:166    .text:00000000000000d0 .LBB18
     /tmp/ccNJEbMZ.s:170    .text:00000000000000d0 .LBE18
     /tmp/ccNJEbMZ.s:171    .text:00000000000000d0 .LBB20
     /tmp/ccNJEbMZ.s:175    .text:00000000000000d0 .LBE20
     /tmp/ccNJEbMZ.s:153    .text:00000000000000b8 .LVL9
     /tmp/ccNJEbMZ.s:180    .text:00000000000000e0 .LVL11
     /tmp/ccNJEbMZ.s:202    .text:0000000000000100 .LVL14
     /tmp/ccNJEbMZ.s:85     .text:0000000000000058 .LFB40
     /tmp/ccNJEbMZ.s:110    .text:0000000000000080 .LFE40
     /tmp/ccNJEbMZ.s:99     .text:0000000000000070 .LVL5
     /tmp/ccNJEbMZ.s:2806   .debug_str:000000000000081e .LASF101
     /tmp/ccNJEbMZ.s:2796   .debug_str:00000000000007d8 .LASF102
     /tmp/ccNJEbMZ.s:2808   .debug_str:0000000000000823 .LASF129
     /tmp/ccNJEbMZ.s:2714   .debug_str:0000000000000563 .LASF111
     /tmp/ccNJEbMZ.s:2568   .debug_str:000000000000007e .LASF113
     /tmp/ccNJEbMZ.s:2758   .debug_str:00000000000006a1 .LASF103
     /tmp/ccNJEbMZ.s:2770   .debug_str:0000000000000711 .LASF105
     /tmp/ccNJEbMZ.s:2678   .debug_str:0000000000000461 .LASF104
     /tmp/ccNJEbMZ.s:2790   .debug_str:00000000000007ab .LASF106
     /tmp/ccNJEbMZ.s:2682   .debug_str:000000000000047d .LASF107
     /tmp/ccNJEbMZ.s:2756   .debug_str:0000000000000691 .LASF108
     /tmp/ccNJEbMZ.s:2652   .debug_str:000000000000038e .LASF109
     /tmp/ccNJEbMZ.s:2782   .debug_str:000000000000075b .LASF110
     /tmp/ccNJEbMZ.s:2634   .debug_str:000000000000030b .LASF112
     /tmp/ccNJEbMZ.s:2600   .debug_str:00000000000001fe .LASF114
     /tmp/ccNJEbMZ.s:26     .text:0000000000000010 .LVL0
     /tmp/ccNJEbMZ.s:37     .text:0000000000000018 .LVL1
     /tmp/ccNJEbMZ.s:51     .text:0000000000000030 .LVL2
     /tmp/ccNJEbMZ.s:62     .text:0000000000000040 .LVL3
     /tmp/ccNJEbMZ.s:222    .text:0000000000000118 .LVL15
GAS LISTING /tmp/ccNJEbMZ.s 			page 21


     /tmp/ccNJEbMZ.s:242    .text:0000000000000140 .LVL16
     /tmp/ccNJEbMZ.s:330    .text:00000000000001e4 .LVL24
     /tmp/ccNJEbMZ.s:337    .text:00000000000001f0 .LVL26
     /tmp/ccNJEbMZ.s:341    .text:00000000000001f4 .LVL27
     /tmp/ccNJEbMZ.s:333    .text:00000000000001e8 .LVL25
     /tmp/ccNJEbMZ.s:302    .text:00000000000001bc .LVL21
     /tmp/ccNJEbMZ.s:327    .text:00000000000001e0 .LVL23
     /tmp/ccNJEbMZ.s:248    .text:000000000000014c .LVL18
     /tmp/ccNJEbMZ.s:132    .text:000000000000009c .LVL6
     /tmp/ccNJEbMZ.s:191    .text:00000000000000ec .LVL12
     /tmp/ccNJEbMZ.s:195    .text:00000000000000f4 .LVL13
     /tmp/ccNJEbMZ.s:138    .text:00000000000000a8 .LVL7
     /tmp/ccNJEbMZ.s:144    .text:00000000000000ac .LVL8
     /tmp/ccNJEbMZ.s:391    .debug_info:0000000000000000 .Ldebug_info0
     /tmp/ccNJEbMZ.s:354    .gcc_except_table:0000000000000000 .LLSDA42

UNDEFINED SYMBOLS
_Z11thread_exitv
_Z15thread_dispatchv
_ZN9Scheduler3getEv
_ZN3CCB13contextSwitchEPNS_7ContextES1_
_ZN9Scheduler3putEP3CCB
_Znwm
_Znam
_ZdlPv
_Unwind_Resume
__gxx_personality_v0
