GAS LISTING /tmp/cc4CGeYE.s 			page 1


   1              		.file	"main.cpp"
   2              		.option nopic
   3              		.option norelax
   4              		.attribute arch, "rv64i2p0_m2p0_a2p0"
   5              		.attribute unaligned_access, 0
   6              		.attribute stack_align, 16
   7              		.text
   8              	.Ltext0:
   9              		.align	2
  11              	_ZL16idle_thread_bodyPv:
  12              	.LFB40:
  13              		.file 1 "src/main.cpp"
   1:src/main.cpp  **** // main.cpp
   2:src/main.cpp  **** 
   3:src/main.cpp  **** // main.cpp
   4:src/main.cpp  **** 
   5:src/main.cpp  **** #include "../h/print.hpp"
   6:src/main.cpp  **** #include "../h/riscv.hpp"
   7:src/main.cpp  **** #include "../h/MemoryAllocator.hpp"
   8:src/main.cpp  **** #include "../h/ccb.hpp"
   9:src/main.cpp  **** #include "../h/_semaphore.hpp"
  10:src/main.cpp  **** 
  11:src/main.cpp  **** volatile int shared_data = 0;
  12:src/main.cpp  **** 
  13:src/main.cpp  **** // Kernel objekti (direktno, ne C API handle-ovi)
  14:src/main.cpp  **** _sem* mutex = nullptr;
  15:src/main.cpp  **** _sem* console_mutex = nullptr;
  16:src/main.cpp  **** bool scheduler_started = false;
  17:src/main.cpp  **** 
  18:src/main.cpp  **** static void idle_thread_body(void*) {
  14              		.loc 1 18 37
  15              		.cfi_startproc
  16 0000 130101FF 		addi	sp,sp,-16
  17              		.cfi_def_cfa_offset 16
  18 0004 23341100 		sd	ra,8(sp)
  19 0008 23308100 		sd	s0,0(sp)
  20              		.cfi_offset 1, -8
  21              		.cfi_offset 8, -16
  22 000c 13040101 		addi	s0,sp,16
  23              		.cfi_def_cfa 8, 0
  24              	.L2:
  19:src/main.cpp  ****     while (true) {
  25              		.loc 1 19 5 discriminator 1
  20:src/main.cpp  ****         CCB::yield();
  26              		.loc 1 20 9 discriminator 1
  27              		.loc 1 20 19 is_stmt 0 discriminator 1
  28 0010 97000000 		call	_ZN3CCB5yieldEv
  28      E7800000 
  29              	.LVL0:
  19:src/main.cpp  ****     while (true) {
  30              		.loc 1 19 5 is_stmt 1 discriminator 1
  31 0018 6FF09FFF 		j	.L2
  32              		.cfi_endproc
  33              	.LFE40:
  35              		.align	2
  37              	_ZL15worker_body_decPv:
  38              	.LFB42:
GAS LISTING /tmp/cc4CGeYE.s 			page 2


  21:src/main.cpp  ****     }
  22:src/main.cpp  **** }
  23:src/main.cpp  **** 
  24:src/main.cpp  **** static void worker_body(void* arg) {
  25:src/main.cpp  ****     int limit = *((int*)arg);
  26:src/main.cpp  ****     for (int i = 0; i < limit; i++) {
  27:src/main.cpp  ****         mutex->wait();
  28:src/main.cpp  ****         shared_data++;
  29:src/main.cpp  ****         mutex->signal();
  30:src/main.cpp  ****     }
  31:src/main.cpp  **** }
  32:src/main.cpp  **** 
  33:src/main.cpp  **** static void worker_body_dec(void* arg) {
  39              		.loc 1 33 40
  40              		.cfi_startproc
  41              	.LVL1:
  42 001c 130101FD 		addi	sp,sp,-48
  43              		.cfi_def_cfa_offset 48
  44 0020 23341102 		sd	ra,40(sp)
  45 0024 23308102 		sd	s0,32(sp)
  46 0028 233C9100 		sd	s1,24(sp)
  47 002c 23382101 		sd	s2,16(sp)
  48 0030 23343101 		sd	s3,8(sp)
  49              		.cfi_offset 1, -8
  50              		.cfi_offset 8, -16
  51              		.cfi_offset 9, -24
  52              		.cfi_offset 18, -32
  53              		.cfi_offset 19, -40
  54 0034 13040103 		addi	s0,sp,48
  55              		.cfi_def_cfa 8, 0
  34:src/main.cpp  ****     int limit = *((int*)arg);
  56              		.loc 1 34 5
  57              		.loc 1 34 9 is_stmt 0
  58 0038 83290500 		lw	s3,0(a0)
  59              	.LVL2:
  35:src/main.cpp  ****     for (int i = 0; i < limit; i++) {
  60              		.loc 1 35 5 is_stmt 1
  61              	.LBB30:
  62              		.loc 1 35 14 is_stmt 0
  63 003c 93040000 		li	s1,0
  64              	.LVL3:
  65              	.L6:
  66              		.loc 1 35 23 is_stmt 1 discriminator 3
  67 0040 63D03405 		bge	s1,s3,.L4
  36:src/main.cpp  ****         mutex->wait();
  68              		.loc 1 36 9 discriminator 2
  69              		.loc 1 36 20 is_stmt 0 discriminator 2
  70 0044 17090000 		lla	s2,mutex
  70      13090900 
  71 004c 03350900 		ld	a0,0(s2)
  72 0050 97000000 		call	_ZN4_sem4waitEv
  72      E7800000 
  73              	.LVL4:
  37:src/main.cpp  ****         shared_data--;
  74              		.loc 1 37 9 is_stmt 1 discriminator 2
  75              		.loc 1 37 20 is_stmt 0 discriminator 2
  76 0058 17070000 		lla	a4,shared_data
GAS LISTING /tmp/cc4CGeYE.s 			page 3


  76      13070700 
  77 0060 83270700 		lw	a5,0(a4)
  78 0064 9B87F7FF 		addiw	a5,a5,-1
  79 0068 2320F700 		sw	a5,0(a4)
  38:src/main.cpp  ****         mutex->signal();
  80              		.loc 1 38 9 is_stmt 1 discriminator 2
  81              		.loc 1 38 22 is_stmt 0 discriminator 2
  82 006c 03350900 		ld	a0,0(s2)
  83 0070 97000000 		call	_ZN4_sem6signalEv
  83      E7800000 
  84              	.LVL5:
  35:src/main.cpp  ****         mutex->wait();
  85              		.loc 1 35 5 is_stmt 1 discriminator 2
  86 0078 9B841400 		addiw	s1,s1,1
  87              	.LVL6:
  88 007c 6FF05FFC 		j	.L6
  89              	.LVL7:
  90              	.L4:
  91              	.LBE30:
  39:src/main.cpp  ****     }
  40:src/main.cpp  **** }
  92              		.loc 1 40 1 is_stmt 0
  93 0080 83308102 		ld	ra,40(sp)
  94              		.cfi_restore 1
  95 0084 03340102 		ld	s0,32(sp)
  96              		.cfi_restore 8
  97              		.cfi_def_cfa 2, 48
  98 0088 83348101 		ld	s1,24(sp)
  99              		.cfi_restore 9
 100              	.LVL8:
 101 008c 03390101 		ld	s2,16(sp)
 102              		.cfi_restore 18
 103 0090 83398100 		ld	s3,8(sp)
 104              		.cfi_restore 19
 105              	.LVL9:
 106 0094 13010103 		addi	sp,sp,48
 107              		.cfi_def_cfa_offset 0
 108 0098 67800000 		jr	ra
 109              		.cfi_endproc
 110              	.LFE42:
 112              		.align	2
 114              	_ZL11worker_bodyPv:
 115              	.LFB41:
  24:src/main.cpp  ****     int limit = *((int*)arg);
 116              		.loc 1 24 36 is_stmt 1
 117              		.cfi_startproc
 118              	.LVL10:
 119 009c 130101FD 		addi	sp,sp,-48
 120              		.cfi_def_cfa_offset 48
 121 00a0 23341102 		sd	ra,40(sp)
 122 00a4 23308102 		sd	s0,32(sp)
 123 00a8 233C9100 		sd	s1,24(sp)
 124 00ac 23382101 		sd	s2,16(sp)
 125 00b0 23343101 		sd	s3,8(sp)
 126              		.cfi_offset 1, -8
 127              		.cfi_offset 8, -16
 128              		.cfi_offset 9, -24
GAS LISTING /tmp/cc4CGeYE.s 			page 4


 129              		.cfi_offset 18, -32
 130              		.cfi_offset 19, -40
 131 00b4 13040103 		addi	s0,sp,48
 132              		.cfi_def_cfa 8, 0
  25:src/main.cpp  ****     for (int i = 0; i < limit; i++) {
 133              		.loc 1 25 5
  25:src/main.cpp  ****     for (int i = 0; i < limit; i++) {
 134              		.loc 1 25 9 is_stmt 0
 135 00b8 83290500 		lw	s3,0(a0)
 136              	.LVL11:
  26:src/main.cpp  ****         mutex->wait();
 137              		.loc 1 26 5 is_stmt 1
 138              	.LBB31:
  26:src/main.cpp  ****         mutex->wait();
 139              		.loc 1 26 14 is_stmt 0
 140 00bc 93040000 		li	s1,0
 141              	.LVL12:
 142              	.L10:
  26:src/main.cpp  ****         mutex->wait();
 143              		.loc 1 26 23 is_stmt 1 discriminator 3
 144 00c0 63D03405 		bge	s1,s3,.L8
  27:src/main.cpp  ****         shared_data++;
 145              		.loc 1 27 9 discriminator 2
  27:src/main.cpp  ****         shared_data++;
 146              		.loc 1 27 20 is_stmt 0 discriminator 2
 147 00c4 17090000 		lla	s2,mutex
 147      13090900 
 148 00cc 03350900 		ld	a0,0(s2)
 149 00d0 97000000 		call	_ZN4_sem4waitEv
 149      E7800000 
 150              	.LVL13:
  28:src/main.cpp  ****         mutex->signal();
 151              		.loc 1 28 9 is_stmt 1 discriminator 2
  28:src/main.cpp  ****         mutex->signal();
 152              		.loc 1 28 20 is_stmt 0 discriminator 2
 153 00d8 17070000 		lla	a4,shared_data
 153      13070700 
 154 00e0 83270700 		lw	a5,0(a4)
 155 00e4 9B871700 		addiw	a5,a5,1
 156 00e8 2320F700 		sw	a5,0(a4)
  29:src/main.cpp  ****     }
 157              		.loc 1 29 9 is_stmt 1 discriminator 2
  29:src/main.cpp  ****     }
 158              		.loc 1 29 22 is_stmt 0 discriminator 2
 159 00ec 03350900 		ld	a0,0(s2)
 160 00f0 97000000 		call	_ZN4_sem6signalEv
 160      E7800000 
 161              	.LVL14:
  26:src/main.cpp  ****         mutex->wait();
 162              		.loc 1 26 5 is_stmt 1 discriminator 2
 163 00f8 9B841400 		addiw	s1,s1,1
 164              	.LVL15:
 165 00fc 6FF05FFC 		j	.L10
 166              	.LVL16:
 167              	.L8:
 168              	.LBE31:
  31:src/main.cpp  **** 
GAS LISTING /tmp/cc4CGeYE.s 			page 5


 169              		.loc 1 31 1 is_stmt 0
 170 0100 83308102 		ld	ra,40(sp)
 171              		.cfi_restore 1
 172 0104 03340102 		ld	s0,32(sp)
 173              		.cfi_restore 8
 174              		.cfi_def_cfa 2, 48
 175 0108 83348101 		ld	s1,24(sp)
 176              		.cfi_restore 9
 177              	.LVL17:
 178 010c 03390101 		ld	s2,16(sp)
 179              		.cfi_restore 18
 180 0110 83398100 		ld	s3,8(sp)
 181              		.cfi_restore 19
 182              	.LVL18:
 183 0114 13010103 		addi	sp,sp,48
 184              		.cfi_def_cfa_offset 0
 185 0118 67800000 		jr	ra
 186              		.cfi_endproc
 187              	.LFE41:
 189              		.section	.rodata.str1.8,"aMS",@progbits,1
 190              		.align	3
 191              	.LC0:
 192 0000 4B65726E 		.string	"Kernel initialized.\n"
 192      656C2069 
 192      6E697469 
 192      616C697A 
 192      65642E0A 
 193 0015 000000   		.align	3
 194              	.LC1:
 195 0018 4D61696E 		.string	"Main thread and console mutex created.\n"
 195      20746872 
 195      65616420 
 195      616E6420 
 195      636F6E73 
 196              		.align	3
 197              	.LC2:
 198 0040 53746172 		.string	"Starting semaphore test...\n"
 198      74696E67 
 198      2073656D 
 198      6170686F 
 198      72652074 
 199 005c 00000000 		.align	3
 200              	.LC3:
 201 0060 54687265 		.string	"Thread 1 (inc) created.\n"
 201      61642031 
 201      2028696E 
 201      63292063 
 201      72656174 
 202 0079 00000000 		.align	3
 202      000000
 203              	.LC4:
 204 0080 54687265 		.string	"Thread 2 (inc) created.\n"
 204      61642032 
 204      2028696E 
 204      63292063 
 204      72656174 
 205 0099 00000000 		.align	3
GAS LISTING /tmp/cc4CGeYE.s 			page 6


 205      000000
 206              	.LC5:
 207 00a0 54687265 		.string	"Thread 3 (dec) created.\n"
 207      61642033 
 207      20286465 
 207      63292063 
 207      72656174 
 208 00b9 00000000 		.align	3
 208      000000
 209              	.LC6:
 210 00c0 54687265 		.string	"Thread 4 (dec) created.\n"
 210      61642034 
 210      20286465 
 210      63292063 
 210      72656174 
 211 00d9 00000000 		.align	3
 211      000000
 212              	.LC7:
 213 00e0 4D61696E 		.string	"Main thread yielding to workers...\n"
 213      20746872 
 213      65616420 
 213      7969656C 
 213      64696E67 
 214 0104 00000000 		.align	3
 215              	.LC8:
 216 0108 416C6C20 		.string	"All threads finished.\n"
 216      74687265 
 216      61647320 
 216      66696E69 
 216      73686564 
 217 011f 00       		.align	3
 218              	.LC9:
 219 0120 46696E61 		.string	"Final value of shared_data: "
 219      6C207661 
 219      6C756520 
 219      6F662073 
 219      68617265 
 220 013d 000000   		.align	3
 221              	.LC10:
 222 0140 0A00     		.string	"\n"
 223 0142 00000000 		.align	3
 223      0000
 224              	.LC11:
 225 0148 53554343 		.string	"SUCCESS: Race condition avoided!\n"
 225      4553533A 
 225      20526163 
 225      6520636F 
 225      6E646974 
 226 016a 00000000 		.align	3
 226      0000
 227              	.LC12:
 228 0170 4552524F 		.string	"ERROR: Race condition detected!\n"
 228      523A2052 
 228      61636520 
 228      636F6E64 
 228      6974696F 
 229 0191 00000000 		.align	3
GAS LISTING /tmp/cc4CGeYE.s 			page 7


 229      000000
 230              	.LC13:
 231 0198 4D61696E 		.string	"Main finished.\n"
 231      2066696E 
 231      69736865 
 231      642E0A00 
 232              		.text
 233              		.align	2
 234              		.globl	main
 236              	main:
 237              	.LFB43:
  41:src/main.cpp  **** 
  42:src/main.cpp  **** int main() {
 238              		.loc 1 42 12 is_stmt 1
 239              		.cfi_startproc
 240              		.cfi_personality 0x9b,DW.ref.__gxx_personality_v0
 241              		.cfi_lsda 0x1b,.LLSDA43
 242 011c 130101FB 		addi	sp,sp,-80
 243              		.cfi_def_cfa_offset 80
 244 0120 23341104 		sd	ra,72(sp)
 245 0124 23308104 		sd	s0,64(sp)
 246 0128 233C9102 		sd	s1,56(sp)
 247 012c 23382103 		sd	s2,48(sp)
 248 0130 23343103 		sd	s3,40(sp)
 249 0134 23304103 		sd	s4,32(sp)
 250 0138 233C5101 		sd	s5,24(sp)
 251              		.cfi_offset 1, -8
 252              		.cfi_offset 8, -16
 253              		.cfi_offset 9, -24
 254              		.cfi_offset 18, -32
 255              		.cfi_offset 19, -40
 256              		.cfi_offset 20, -48
 257              		.cfi_offset 21, -56
 258 013c 13040105 		addi	s0,sp,80
 259              		.cfi_def_cfa 8, 0
  43:src/main.cpp  ****     // 1) Heap/allocator
  44:src/main.cpp  ****     MemoryAllocator::init();
 260              		.loc 1 44 5
 261              	.LEHB0:
 262              		.loc 1 44 26 is_stmt 0
 263 0140 97000000 		call	_ZN15MemoryAllocator4initEv
 263      E7800000 
 264              	.LVL19:
  45:src/main.cpp  **** 
  46:src/main.cpp  ****     // 2) Postavi trap vektor
  47:src/main.cpp  ****     Riscv::w_stvec((uint64)&supervisorTrap);
 265              		.loc 1 47 5 is_stmt 1
 266              		.loc 1 47 19 is_stmt 0
 267 0148 97070000 		lla	a5,supervisorTrap
 267      93870700 
 268              	.LVL20:
 269              	.LBB32:
 270              	.LBB33:
 271              		.file 2 "src/../h/riscv.hpp"
   1:src/../h/riscv.hpp **** //
   2:src/../h/riscv.hpp **** // Created by os on 9/26/25.
   3:src/../h/riscv.hpp **** //
GAS LISTING /tmp/cc4CGeYE.s 			page 8


   4:src/../h/riscv.hpp **** 
   5:src/../h/riscv.hpp **** #ifndef PROJECT_BASE_V1_1_RISCV_HPP
   6:src/../h/riscv.hpp **** #define PROJECT_BASE_V1_1_RISCV_HPP
   7:src/../h/riscv.hpp **** 
   8:src/../h/riscv.hpp **** #include "../lib/hw.h"
   9:src/../h/riscv.hpp **** 
  10:src/../h/riscv.hpp **** extern "C" void supervisorTrap();
  11:src/../h/riscv.hpp **** 
  12:src/../h/riscv.hpp **** class Riscv
  13:src/../h/riscv.hpp **** {
  14:src/../h/riscv.hpp **** public:
  15:src/../h/riscv.hpp **** 
  16:src/../h/riscv.hpp ****     // pop sstatus.spp and sstatus.spie bits (has to be a non inline function)
  17:src/../h/riscv.hpp ****     static void popSppSpie();
  18:src/../h/riscv.hpp **** 
  19:src/../h/riscv.hpp ****     static void pushRegisters();
  20:src/../h/riscv.hpp **** 
  21:src/../h/riscv.hpp ****     static void popRegisters();
  22:src/../h/riscv.hpp **** 
  23:src/../h/riscv.hpp ****     // read register scause
  24:src/../h/riscv.hpp ****     static uint64 r_scause();
  25:src/../h/riscv.hpp **** 
  26:src/../h/riscv.hpp ****     // write register scause
  27:src/../h/riscv.hpp ****     static void w_scause(uint64 scause);
  28:src/../h/riscv.hpp **** 
  29:src/../h/riscv.hpp ****     // read register sepc
  30:src/../h/riscv.hpp ****     static uint64 r_sepc();
  31:src/../h/riscv.hpp **** 
  32:src/../h/riscv.hpp ****     // write register sepc
  33:src/../h/riscv.hpp ****     static void w_sepc(uint64 sepc);
  34:src/../h/riscv.hpp **** 
  35:src/../h/riscv.hpp ****     // read register stvec
  36:src/../h/riscv.hpp ****     static uint64 r_stvec();
  37:src/../h/riscv.hpp **** 
  38:src/../h/riscv.hpp ****     // write register stvec
  39:src/../h/riscv.hpp ****     static void w_stvec(uint64 stvec);
  40:src/../h/riscv.hpp **** 
  41:src/../h/riscv.hpp ****     // read register stval
  42:src/../h/riscv.hpp ****     static uint64 r_stval();
  43:src/../h/riscv.hpp **** 
  44:src/../h/riscv.hpp ****     // write register stval
  45:src/../h/riscv.hpp ****     static void w_stval(uint64 stval);
  46:src/../h/riscv.hpp **** 
  47:src/../h/riscv.hpp ****     enum BitMaskSip
  48:src/../h/riscv.hpp ****     {
  49:src/../h/riscv.hpp ****         SIP_SSIP = (1 << 1),
  50:src/../h/riscv.hpp ****         SIP_STIP = (1 << 5),
  51:src/../h/riscv.hpp ****         SIP_SEIP = (1 << 9),
  52:src/../h/riscv.hpp ****     };
  53:src/../h/riscv.hpp **** 
  54:src/../h/riscv.hpp ****     // mask set register sip
  55:src/../h/riscv.hpp ****     static void ms_sip(uint64 mask);
  56:src/../h/riscv.hpp **** 
  57:src/../h/riscv.hpp ****     // mask clear register sip
  58:src/../h/riscv.hpp ****     static void mc_sip(uint64 mask);
  59:src/../h/riscv.hpp **** 
  60:src/../h/riscv.hpp ****     // read register sip
GAS LISTING /tmp/cc4CGeYE.s 			page 9


  61:src/../h/riscv.hpp ****     static uint64 r_sip();
  62:src/../h/riscv.hpp **** 
  63:src/../h/riscv.hpp ****     // write register sip
  64:src/../h/riscv.hpp ****     static void w_sip(uint64 sip);
  65:src/../h/riscv.hpp **** 
  66:src/../h/riscv.hpp ****     enum BitMaskSstatus
  67:src/../h/riscv.hpp ****     {
  68:src/../h/riscv.hpp ****         SSTATUS_SIE = (1 << 1),
  69:src/../h/riscv.hpp ****         SSTATUS_SPIE = (1 << 5),
  70:src/../h/riscv.hpp ****         SSTATUS_SPP = (1 << 8),
  71:src/../h/riscv.hpp ****     };
  72:src/../h/riscv.hpp **** 
  73:src/../h/riscv.hpp ****     // mask set register sstatus
  74:src/../h/riscv.hpp ****     static void ms_sstatus(uint64 mask);
  75:src/../h/riscv.hpp **** 
  76:src/../h/riscv.hpp ****     // mask clear register sstatus
  77:src/../h/riscv.hpp ****     static void mc_sstatus(uint64 mask);
  78:src/../h/riscv.hpp **** 
  79:src/../h/riscv.hpp ****     // read register sstatus
  80:src/../h/riscv.hpp ****     static uint64 r_sstatus();
  81:src/../h/riscv.hpp **** 
  82:src/../h/riscv.hpp ****     // write register sstatus
  83:src/../h/riscv.hpp ****     static void w_sstatus(uint64 sstatus);
  84:src/../h/riscv.hpp **** 
  85:src/../h/riscv.hpp ****     /* -------------------------------------- */
  86:src/../h/riscv.hpp **** 
  87:src/../h/riscv.hpp ****     // čitaj sie registar
  88:src/../h/riscv.hpp ****     static uint64 r_sie();
  89:src/../h/riscv.hpp **** 
  90:src/../h/riscv.hpp ****     // piši u sie registar
  91:src/../h/riscv.hpp ****     static void w_sie(uint64 sie);
  92:src/../h/riscv.hpp **** 
  93:src/../h/riscv.hpp ****     // mask set u sie registru
  94:src/../h/riscv.hpp ****     static void ms_sie(uint64 mask);
  95:src/../h/riscv.hpp **** 
  96:src/../h/riscv.hpp ****     // mask clear u sie registru
  97:src/../h/riscv.hpp ****     static void mc_sie(uint64 mask);
  98:src/../h/riscv.hpp **** 
  99:src/../h/riscv.hpp ****     enum BitMaskSie {
 100:src/../h/riscv.hpp ****         SIE_SEIE = (1 << 9), // Supervisor External Interrupt Enable
 101:src/../h/riscv.hpp ****         SIE_STIE = (1 << 5), // Supervisor Timer Interrupt Enable
 102:src/../h/riscv.hpp ****         SIE_SSIE = (1 << 1), // Supervisor Software Interrupt Enable
 103:src/../h/riscv.hpp ****     };
 104:src/../h/riscv.hpp **** 
 105:src/../h/riscv.hpp **** 
 106:src/../h/riscv.hpp **** 
 107:src/../h/riscv.hpp **** private:
 108:src/../h/riscv.hpp **** 
 109:src/../h/riscv.hpp ****     static uint64 handleSupervisorTrap();
 110:src/../h/riscv.hpp **** 
 111:src/../h/riscv.hpp **** };
 112:src/../h/riscv.hpp **** 
 113:src/../h/riscv.hpp **** inline uint64 Riscv::r_scause()
 114:src/../h/riscv.hpp **** {
 115:src/../h/riscv.hpp ****     uint64 volatile scause;
 116:src/../h/riscv.hpp ****     __asm__ volatile ("csrr %[scause], scause" : [scause] "=r"(scause));
 117:src/../h/riscv.hpp ****     return scause;
GAS LISTING /tmp/cc4CGeYE.s 			page 10


 118:src/../h/riscv.hpp **** }
 119:src/../h/riscv.hpp **** 
 120:src/../h/riscv.hpp **** inline void Riscv::w_scause(uint64 scause)
 121:src/../h/riscv.hpp **** {
 122:src/../h/riscv.hpp ****     __asm__ volatile ("csrw scause, %[scause]" : : [scause] "r"(scause));
 123:src/../h/riscv.hpp **** }
 124:src/../h/riscv.hpp **** 
 125:src/../h/riscv.hpp **** inline uint64 Riscv::r_sepc()
 126:src/../h/riscv.hpp **** {
 127:src/../h/riscv.hpp ****     uint64 volatile sepc;
 128:src/../h/riscv.hpp ****     __asm__ volatile ("csrr %[sepc], sepc" : [sepc] "=r"(sepc));
 129:src/../h/riscv.hpp ****     return sepc;
 130:src/../h/riscv.hpp **** }
 131:src/../h/riscv.hpp **** 
 132:src/../h/riscv.hpp **** inline void Riscv::w_sepc(uint64 sepc)
 133:src/../h/riscv.hpp **** {
 134:src/../h/riscv.hpp ****     __asm__ volatile ("csrw sepc, %[sepc]" : : [sepc] "r"(sepc));
 135:src/../h/riscv.hpp **** }
 136:src/../h/riscv.hpp **** 
 137:src/../h/riscv.hpp **** inline uint64 Riscv::r_stvec()
 138:src/../h/riscv.hpp **** {
 139:src/../h/riscv.hpp ****     uint64 volatile stvec;
 140:src/../h/riscv.hpp ****     __asm__ volatile ("csrr %[stvec], stvec" : [stvec] "=r"(stvec));
 141:src/../h/riscv.hpp ****     return stvec;
 142:src/../h/riscv.hpp **** }
 143:src/../h/riscv.hpp **** 
 144:src/../h/riscv.hpp **** inline void Riscv::w_stvec(uint64 stvec)
 145:src/../h/riscv.hpp **** {
 146:src/../h/riscv.hpp ****     __asm__ volatile ("csrw stvec, %[stvec]" : : [stvec] "r"(stvec));
 272              		.loc 2 146 5 is_stmt 1
 273              		.loc 2 146 69 is_stmt 0
 274              	 #APP
 275              	# 146 "src/../h/riscv.hpp" 1
 147              	}
 276              		csrw stvec, a5
 277              	# 0 "" 2
 278              	.LVL21:
 279              	 #NO_APP
 280              	.LBE33:
 281              	.LBE32:
  48:src/main.cpp  **** 
  49:src/main.cpp  ****     printString("Kernel initialized.\n");
 282              		.loc 1 49 5 is_stmt 1
 283              		.loc 1 49 16 is_stmt 0
 284 0154 17050000 		lla	a0,.LC0
 284      13050500 
 285 015c 97000000 		call	_Z11printStringPKc
 285      E7800000 
 286              	.LVL22:
  50:src/main.cpp  **** 
  51:src/main.cpp  ****     // 3) Kreiraj konzolni mutex pre bilo kog ispisa pod schedulerom
  52:src/main.cpp  ****     console_mutex = new _sem(1);
 287              		.loc 1 52 5 is_stmt 1
 288              		.loc 1 52 31 is_stmt 0
 289 0164 13058001 		li	a0,24
 290 0168 97000000 		call	_ZN4_semnwEm
 290      E7800000 
GAS LISTING /tmp/cc4CGeYE.s 			page 11


 291              	.LVL23:
 292              	.LEHE0:
 293 0170 93040500 		mv	s1,a0
 294 0174 93051000 		li	a1,1
 295              	.LEHB1:
 296 0178 97000000 		call	_ZN4_semC1Ej
 296      E7800000 
 297              	.LVL24:
 298              	.LEHE1:
 299              		.loc 1 52 19 discriminator 3
 300 0180 97070000 		sd	s1,console_mutex,a5
 300      23B09700 
  53:src/main.cpp  **** 
  54:src/main.cpp  ****     // 4) Kreiraj i registruj main/idle nit pre uključivanja prekida
  55:src/main.cpp  ****     CCB* main_thread = CCB::createCoroutine(idle_thread_body, nullptr);
 301              		.loc 1 55 5 is_stmt 1 discriminator 3
 302              		.loc 1 55 44 is_stmt 0 discriminator 3
 303 0188 93050000 		li	a1,0
 304 018c 17050000 		lla	a0,_ZL16idle_thread_bodyPv
 304      13050500 
 305              	.LEHB2:
 306 0194 97000000 		call	_ZN3CCB15createCoroutineEPFvPvES0_
 306      E7800000 
 307              	.LVL25:
  56:src/main.cpp  ****     CCB::running    = main_thread;
 308              		.loc 1 56 5 is_stmt 1 discriminator 3
 309              		.loc 1 56 21 is_stmt 0 discriminator 3
 310 019c 17070000 		sd	a0,_ZN3CCB7runningE,a4
 310      2330A700 
  57:src/main.cpp  ****     CCB::mainThread = main_thread;
 311              		.loc 1 57 5 is_stmt 1 discriminator 3
 312              		.loc 1 57 21 is_stmt 0 discriminator 3
 313 01a4 17070000 		sd	a0,_ZN3CCB10mainThreadE,a4
 313      2330A700 
  58:src/main.cpp  ****     Scheduler::put(main_thread);
 314              		.loc 1 58 5 is_stmt 1 discriminator 3
 315              		.loc 1 58 19 is_stmt 0 discriminator 3
 316 01ac 97000000 		call	_ZN9Scheduler3putEP3CCB
 316      E7800000 
 317              	.LVL26:
  59:src/main.cpp  **** 
  60:src/main.cpp  ****     // 5) Tek sada uključi prekide (ima valjana running nit i scheduler)
  61:src/main.cpp  ****     Riscv::mc_sie(Riscv::SIE_SEIE);
 318              		.loc 1 61 5 is_stmt 1 discriminator 3
 319              	.LBB34:
 320              	.LBB35:
 148:src/../h/riscv.hpp **** 
 149:src/../h/riscv.hpp **** inline uint64 Riscv::r_stval()
 150:src/../h/riscv.hpp **** {
 151:src/../h/riscv.hpp ****     uint64 volatile stval;
 152:src/../h/riscv.hpp ****     __asm__ volatile ("csrr %[stval], stval" : [stval] "=r"(stval));
 153:src/../h/riscv.hpp ****     return stval;
 154:src/../h/riscv.hpp **** }
 155:src/../h/riscv.hpp **** 
 156:src/../h/riscv.hpp **** inline void Riscv::w_stval(uint64 stval)
 157:src/../h/riscv.hpp **** {
 158:src/../h/riscv.hpp ****     __asm__ volatile ("csrw stval, %[stval]" : : [stval] "r"(stval));
GAS LISTING /tmp/cc4CGeYE.s 			page 12


 159:src/../h/riscv.hpp **** }
 160:src/../h/riscv.hpp **** 
 161:src/../h/riscv.hpp **** inline void Riscv::ms_sip(uint64 mask)
 162:src/../h/riscv.hpp **** {
 163:src/../h/riscv.hpp ****     __asm__ volatile ("csrs sip, %[mask]" : : [mask] "r"(mask));
 164:src/../h/riscv.hpp **** }
 165:src/../h/riscv.hpp **** 
 166:src/../h/riscv.hpp **** inline void Riscv::mc_sip(uint64 mask)
 167:src/../h/riscv.hpp **** {
 168:src/../h/riscv.hpp ****     __asm__ volatile ("csrc sip, %[mask]" : : [mask] "r"(mask));
 169:src/../h/riscv.hpp **** }
 170:src/../h/riscv.hpp **** 
 171:src/../h/riscv.hpp **** inline uint64 Riscv::r_sip()
 172:src/../h/riscv.hpp **** {
 173:src/../h/riscv.hpp ****     uint64 volatile sip;
 174:src/../h/riscv.hpp ****     __asm__ volatile ("csrr %[sip], sip" : [sip] "=r"(sip));
 175:src/../h/riscv.hpp ****     return sip;
 176:src/../h/riscv.hpp **** }
 177:src/../h/riscv.hpp **** 
 178:src/../h/riscv.hpp **** inline void Riscv::w_sip(uint64 sip)
 179:src/../h/riscv.hpp **** {
 180:src/../h/riscv.hpp ****     __asm__ volatile ("csrw sip, %[sip]" : : [sip] "r"(sip));
 181:src/../h/riscv.hpp **** }
 182:src/../h/riscv.hpp **** 
 183:src/../h/riscv.hpp **** inline void Riscv::ms_sstatus(uint64 mask)
 184:src/../h/riscv.hpp **** {
 185:src/../h/riscv.hpp ****     __asm__ volatile ("csrs sstatus, %[mask]" : : [mask] "r"(mask));
 186:src/../h/riscv.hpp **** }
 187:src/../h/riscv.hpp **** 
 188:src/../h/riscv.hpp **** inline void Riscv::mc_sstatus(uint64 mask)
 189:src/../h/riscv.hpp **** {
 190:src/../h/riscv.hpp ****     __asm__ volatile ("csrc sstatus, %[mask]" : : [mask] "r"(mask));
 191:src/../h/riscv.hpp **** }
 192:src/../h/riscv.hpp **** 
 193:src/../h/riscv.hpp **** inline uint64 Riscv::r_sstatus()
 194:src/../h/riscv.hpp **** {
 195:src/../h/riscv.hpp ****     uint64 volatile sstatus;
 196:src/../h/riscv.hpp ****     __asm__ volatile ("csrr %[sstatus], sstatus" : [sstatus] "=r"(sstatus));
 197:src/../h/riscv.hpp ****     return sstatus;
 198:src/../h/riscv.hpp **** }
 199:src/../h/riscv.hpp **** 
 200:src/../h/riscv.hpp **** inline void Riscv::w_sstatus(uint64 sstatus)
 201:src/../h/riscv.hpp **** {
 202:src/../h/riscv.hpp ****     __asm__ volatile ("csrw sstatus, %[sstatus]" : : [sstatus] "r"(sstatus));
 203:src/../h/riscv.hpp **** }
 204:src/../h/riscv.hpp **** 
 205:src/../h/riscv.hpp **** inline uint64 Riscv::r_sie() {
 206:src/../h/riscv.hpp ****     uint64 volatile sie;
 207:src/../h/riscv.hpp ****     __asm__ volatile ("csrr %[sie], sie" : [sie] "=r"(sie));
 208:src/../h/riscv.hpp ****     return sie;
 209:src/../h/riscv.hpp **** }
 210:src/../h/riscv.hpp **** 
 211:src/../h/riscv.hpp **** inline void Riscv::w_sie(uint64 sie) {
 212:src/../h/riscv.hpp ****     __asm__ volatile ("csrw sie, %[sie]" : : [sie] "r"(sie));
 213:src/../h/riscv.hpp **** }
 214:src/../h/riscv.hpp **** 
 215:src/../h/riscv.hpp **** inline void Riscv::ms_sie(uint64 mask) {
GAS LISTING /tmp/cc4CGeYE.s 			page 13


 216:src/../h/riscv.hpp ****     __asm__ volatile ("csrs sie, %[mask]" : : [mask] "r"(mask));
 217:src/../h/riscv.hpp **** }
 218:src/../h/riscv.hpp **** 
 219:src/../h/riscv.hpp **** inline void Riscv::mc_sie(uint64 mask) {
 220:src/../h/riscv.hpp ****     __asm__ volatile ("csrc sie, %[mask]" : : [mask] "r"(mask));
 321              		.loc 2 220 5 discriminator 3
 322              		.loc 2 220 64 is_stmt 0 discriminator 3
 323 01b4 93070020 		li	a5,512
 324              	 #APP
 325              	# 220 "src/../h/riscv.hpp" 1
 221              	}
 326              		csrc sie, a5
 327              	# 0 "" 2
 328              	.LVL27:
 329              	 #NO_APP
 330              	.LBE35:
 331              	.LBE34:
  62:src/main.cpp  ****     Riscv::ms_sstatus(Riscv::SSTATUS_SIE);
 332              		.loc 1 62 5 is_stmt 1 discriminator 3
 333              	.LBB36:
 334              	.LBB37:
 185:src/../h/riscv.hpp **** }
 335              		.loc 2 185 5 discriminator 3
 185:src/../h/riscv.hpp **** }
 336              		.loc 2 185 68 is_stmt 0 discriminator 3
 337 01bc 93072000 		li	a5,2
 338              	 #APP
 339              	# 185 "src/../h/riscv.hpp" 1
 340              		csrs sstatus, a5
 341              	# 0 "" 2
 342              	.LVL28:
 343              	 #NO_APP
 344              	.LBE37:
 345              	.LBE36:
  63:src/main.cpp  **** 
  64:src/main.cpp  ****     printString("Main thread and console mutex created.\n");
 346              		.loc 1 64 5 is_stmt 1 discriminator 3
 347              		.loc 1 64 16 is_stmt 0 discriminator 3
 348 01c4 17050000 		lla	a0,.LC1
 348      13050500 
 349 01cc 97000000 		call	_Z11printStringPKc
 349      E7800000 
 350              	.LVL29:
  65:src/main.cpp  ****     printString("Starting semaphore test...\n");
 351              		.loc 1 65 5 is_stmt 1 discriminator 3
 352              		.loc 1 65 16 is_stmt 0 discriminator 3
 353 01d4 17050000 		lla	a0,.LC2
 353      13050500 
 354 01dc 97000000 		call	_Z11printStringPKc
 354      E7800000 
 355              	.LVL30:
  66:src/main.cpp  **** 
  67:src/main.cpp  ****     // 6) Test mutex i radne niti
  68:src/main.cpp  ****     mutex = new _sem(1);
 356              		.loc 1 68 5 is_stmt 1 discriminator 3
 357              		.loc 1 68 23 is_stmt 0 discriminator 3
 358 01e4 13058001 		li	a0,24
GAS LISTING /tmp/cc4CGeYE.s 			page 14


 359 01e8 97000000 		call	_ZN4_semnwEm
 359      E7800000 
 360              	.LVL31:
 361              	.LEHE2:
 362 01f0 93040500 		mv	s1,a0
 363 01f4 93051000 		li	a1,1
 364              	.LEHB3:
 365 01f8 97000000 		call	_ZN4_semC1Ej
 365      E7800000 
 366              	.LVL32:
 367              	.LEHE3:
 368              		.loc 1 68 11 discriminator 3
 369 0200 97070000 		sd	s1,mutex,a5
 369      23B09700 
  69:src/main.cpp  **** 
  70:src/main.cpp  ****     int loops = 10; // slobodno menjaš
 370              		.loc 1 70 5 is_stmt 1 discriminator 3
 371              		.loc 1 70 9 is_stmt 0 discriminator 3
 372 0208 9307A000 		li	a5,10
 373 020c 232EF4FA 		sw	a5,-68(s0)
  71:src/main.cpp  ****     CCB *thread1 = CCB::createCoroutine(worker_body, &loops);
 374              		.loc 1 71 5 is_stmt 1 discriminator 3
 375              		.loc 1 71 40 is_stmt 0 discriminator 3
 376 0210 9305C4FB 		addi	a1,s0,-68
 377 0214 17050000 		lla	a0,_ZL11worker_bodyPv
 377      13050500 
 378              	.LEHB4:
 379 021c 97000000 		call	_ZN3CCB15createCoroutineEPFvPvES0_
 379      E7800000 
 380              	.LVL33:
 381 0224 93040500 		mv	s1,a0
 382              	.LVL34:
  72:src/main.cpp  ****     printString("Thread 1 (inc) created.\n");
 383              		.loc 1 72 5 is_stmt 1 discriminator 3
 384              		.loc 1 72 16 is_stmt 0 discriminator 3
 385 0228 17050000 		lla	a0,.LC3
 385      13050500 
 386 0230 97000000 		call	_Z11printStringPKc
 386      E7800000 
 387              	.LVL35:
  73:src/main.cpp  **** 
  74:src/main.cpp  ****     CCB *thread2 = CCB::createCoroutine(worker_body, &loops);
 388              		.loc 1 74 5 is_stmt 1 discriminator 3
 389              		.loc 1 74 40 is_stmt 0 discriminator 3
 390 0238 9305C4FB 		addi	a1,s0,-68
 391 023c 17050000 		lla	a0,_ZL11worker_bodyPv
 391      13050500 
 392 0244 97000000 		call	_ZN3CCB15createCoroutineEPFvPvES0_
 392      E7800000 
 393              	.LVL36:
 394 024c 13090500 		mv	s2,a0
 395              	.LVL37:
  75:src/main.cpp  ****     printString("Thread 2 (inc) created.\n");
 396              		.loc 1 75 5 is_stmt 1 discriminator 3
 397              		.loc 1 75 16 is_stmt 0 discriminator 3
 398 0250 17050000 		lla	a0,.LC4
 398      13050500 
GAS LISTING /tmp/cc4CGeYE.s 			page 15


 399              	.LVL38:
 400 0258 97000000 		call	_Z11printStringPKc
 400      E7800000 
 401              	.LVL39:
  76:src/main.cpp  **** 
  77:src/main.cpp  ****     CCB *thread3 = CCB::createCoroutine(worker_body_dec, &loops);
 402              		.loc 1 77 5 is_stmt 1 discriminator 3
 403              		.loc 1 77 40 is_stmt 0 discriminator 3
 404 0260 9305C4FB 		addi	a1,s0,-68
 405 0264 17050000 		lla	a0,_ZL15worker_body_decPv
 405      13050500 
 406 026c 97000000 		call	_ZN3CCB15createCoroutineEPFvPvES0_
 406      E7800000 
 407              	.LVL40:
 408 0274 93090500 		mv	s3,a0
 409              	.LVL41:
  78:src/main.cpp  ****     printString("Thread 3 (dec) created.\n");
 410              		.loc 1 78 5 is_stmt 1 discriminator 3
 411              		.loc 1 78 16 is_stmt 0 discriminator 3
 412 0278 17050000 		lla	a0,.LC5
 412      13050500 
 413              	.LVL42:
 414 0280 97000000 		call	_Z11printStringPKc
 414      E7800000 
 415              	.LVL43:
  79:src/main.cpp  **** 
  80:src/main.cpp  ****     CCB *thread4 = CCB::createCoroutine(worker_body_dec, &loops);
 416              		.loc 1 80 5 is_stmt 1 discriminator 3
 417              		.loc 1 80 40 is_stmt 0 discriminator 3
 418 0288 9305C4FB 		addi	a1,s0,-68
 419 028c 17050000 		lla	a0,_ZL15worker_body_decPv
 419      13050500 
 420 0294 97000000 		call	_ZN3CCB15createCoroutineEPFvPvES0_
 420      E7800000 
 421              	.LVL44:
 422 029c 130A0500 		mv	s4,a0
 423              	.LVL45:
  81:src/main.cpp  ****     printString("Thread 4 (dec) created.\n");
 424              		.loc 1 81 5 is_stmt 1 discriminator 3
 425              		.loc 1 81 16 is_stmt 0 discriminator 3
 426 02a0 17050000 		lla	a0,.LC6
 426      13050500 
 427              	.LVL46:
 428 02a8 97000000 		call	_Z11printStringPKc
 428      E7800000 
 429              	.LVL47:
  82:src/main.cpp  **** 
  83:src/main.cpp  ****     printString("Main thread yielding to workers...\n");
 430              		.loc 1 83 5 is_stmt 1 discriminator 3
 431              		.loc 1 83 16 is_stmt 0 discriminator 3
 432 02b0 17050000 		lla	a0,.LC7
 432      13050500 
 433 02b8 97000000 		call	_Z11printStringPKc
 433      E7800000 
 434              	.LVL48:
  84:src/main.cpp  **** 
  85:src/main.cpp  ****     scheduler_started = true;
GAS LISTING /tmp/cc4CGeYE.s 			page 16


 435              		.loc 1 85 5 is_stmt 1 discriminator 3
 436              		.loc 1 85 23 is_stmt 0 discriminator 3
 437 02c0 93071000 		li	a5,1
 438 02c4 17070000 		sb	a5,scheduler_started,a4
 438      2300F700 
 439 02cc 6F00C000 		j	.L15
 440              	.L13:
  86:src/main.cpp  **** 
  87:src/main.cpp  ****     // 7) Čekaj završetak svih niti (ne briši ih u dispatch-u!)
  88:src/main.cpp  ****     while (!thread1->isFinished() || !thread2->isFinished()
  89:src/main.cpp  ****            || !thread3->isFinished() || !thread4->isFinished()) {
  90:src/main.cpp  ****         CCB::yield();
 441              		.loc 1 90 9 is_stmt 1 discriminator 4
 442              		.loc 1 90 19 is_stmt 0 discriminator 4
 443 02d0 97000000 		call	_ZN3CCB5yieldEv
 443      E7800000 
 444              	.LVL49:
 445              	.L15:
  88:src/main.cpp  ****            || !thread3->isFinished() || !thread4->isFinished()) {
 446              		.loc 1 88 5 is_stmt 1
  89:src/main.cpp  ****         CCB::yield();
 447              		.loc 1 89 38
 448              	.LBB38:
 449              	.LBB39:
 450              		.file 3 "src/../h/ccb.hpp"
   1:src/../h/ccb.hpp **** //
   2:src/../h/ccb.hpp **** // Created by os on 9/26/25.
   3:src/../h/ccb.hpp **** //
   4:src/../h/ccb.hpp **** 
   5:src/../h/ccb.hpp **** #ifndef PROJECT_BASE_V1_1_CCB_HPP
   6:src/../h/ccb.hpp **** #define PROJECT_BASE_V1_1_CCB_HPP
   7:src/../h/ccb.hpp **** 
   8:src/../h/ccb.hpp **** #include "../lib/hw.h"
   9:src/../h/ccb.hpp **** #include "Scheduler.hpp"
  10:src/../h/ccb.hpp **** 
  11:src/../h/ccb.hpp **** class CCB {
  12:src/../h/ccb.hpp **** public:
  13:src/../h/ccb.hpp **** 
  14:src/../h/ccb.hpp ****     ~CCB() {delete[] stack;}
  15:src/../h/ccb.hpp **** 
  16:src/../h/ccb.hpp ****     bool isFinished() const { return finished; }
 451              		.loc 3 16 31
 452              		.loc 3 16 38 is_stmt 0
 453 02d8 83C70403 		lbu	a5,48(s1)
 454              	.LVL50:
 455              	.LBE39:
 456              	.LBE38:
  89:src/main.cpp  ****         CCB::yield();
 457              		.loc 1 89 38
 458 02dc E38A07FE 		beqz	a5,.L13
 459              	.LVL51:
 460              	.LBB40:
 461              	.LBB41:
 462              		.loc 3 16 31 is_stmt 1
 463              		.loc 3 16 38 is_stmt 0
 464 02e0 83470903 		lbu	a5,48(s2)
 465              	.LVL52:
GAS LISTING /tmp/cc4CGeYE.s 			page 17


 466              	.LBE41:
 467              	.LBE40:
  88:src/main.cpp  ****            || !thread3->isFinished() || !thread4->isFinished()) {
 468              		.loc 1 88 35
 469 02e4 E38607FE 		beqz	a5,.L13
 470              	.LVL53:
 471              	.LBB42:
 472              	.LBB43:
 473              		.loc 3 16 31 is_stmt 1
 474              		.loc 3 16 38 is_stmt 0
 475 02e8 83C70903 		lbu	a5,48(s3)
 476              	.LVL54:
 477              	.LBE43:
 478              	.LBE42:
  89:src/main.cpp  ****         CCB::yield();
 479              		.loc 1 89 12
 480 02ec E38207FE 		beqz	a5,.L13
 481              	.LVL55:
 482              	.LBB44:
 483              	.LBB45:
 484              		.loc 3 16 31 is_stmt 1
 485              		.loc 3 16 38 is_stmt 0
 486 02f0 83470A03 		lbu	a5,48(s4)
 487              	.LVL56:
 488              	.LBE45:
 489              	.LBE44:
  89:src/main.cpp  ****         CCB::yield();
 490              		.loc 1 89 38
 491 02f4 E38E07FC 		beqz	a5,.L13
  91:src/main.cpp  ****     }
  92:src/main.cpp  **** 
  93:src/main.cpp  ****     printString("All threads finished.\n");
 492              		.loc 1 93 5 is_stmt 1
 493              		.loc 1 93 16 is_stmt 0
 494 02f8 17050000 		lla	a0,.LC8
 494      13050500 
 495 0300 97000000 		call	_Z11printStringPKc
 495      E7800000 
 496              	.LVL57:
  94:src/main.cpp  **** 
  95:src/main.cpp  ****     printString("Final value of shared_data: ");
 497              		.loc 1 95 5 is_stmt 1
 498              		.loc 1 95 16 is_stmt 0
 499 0308 17050000 		lla	a0,.LC9
 499      13050500 
 500 0310 97000000 		call	_Z11printStringPKc
 500      E7800000 
 501              	.LVL58:
  96:src/main.cpp  ****     printInteger(shared_data);
 502              		.loc 1 96 5 is_stmt 1
 503              		.loc 1 96 17 is_stmt 0
 504 0318 970A0000 		lla	s5,shared_data
 504      938A0A00 
 505 0320 03A50A00 		lw	a0,0(s5)
 506 0324 1B050500 		sext.w	a0,a0
 507 0328 97000000 		call	_Z12printIntegerm
 507      E7800000 
GAS LISTING /tmp/cc4CGeYE.s 			page 18


 508              	.LVL59:
  97:src/main.cpp  ****     printString("\n");
 509              		.loc 1 97 5 is_stmt 1
 510              		.loc 1 97 16 is_stmt 0
 511 0330 17050000 		lla	a0,.LC10
 511      13050500 
 512 0338 97000000 		call	_Z11printStringPKc
 512      E7800000 
 513              	.LVL60:
  98:src/main.cpp  **** 
  99:src/main.cpp  ****     if (shared_data == 0) {
 514              		.loc 1 99 5 is_stmt 1
 515              		.loc 1 99 21 is_stmt 0
 516 0340 83A70A00 		lw	a5,0(s5)
 517 0344 9B870700 		sext.w	a5,a5
 518              		.loc 1 99 5
 519 0348 63920712 		bnez	a5,.L16
 100:src/main.cpp  ****         printString("SUCCESS: Race condition avoided!\n");
 520              		.loc 1 100 9 is_stmt 1
 521              		.loc 1 100 20 is_stmt 0
 522 034c 17050000 		lla	a0,.LC11
 522      13050500 
 523 0354 97000000 		call	_Z11printStringPKc
 523      E7800000 
 524              	.LVL61:
 525              	.L17:
 101:src/main.cpp  ****     } else {
 102:src/main.cpp  ****         printString("ERROR: Race condition detected!\n");
 103:src/main.cpp  ****     }
 104:src/main.cpp  **** 
 105:src/main.cpp  ****     // 8) Bezbedno čišćenje: prvo obriši niti (glavna ih više ne dereferencira)
 106:src/main.cpp  ****     delete thread1;
 526              		.loc 1 106 5 is_stmt 1
 527              		.loc 1 106 19 is_stmt 0
 528 035c 63800402 		beqz	s1,.L18
 529              	.LVL62:
 530              	.LBB46:
 531              	.LBB47:
  14:src/../h/ccb.hpp **** 
 532              		.loc 3 14 13 is_stmt 1
  14:src/../h/ccb.hpp **** 
 533              		.loc 3 14 22 is_stmt 0
 534 0360 03B58401 		ld	a0,24(s1)
  14:src/../h/ccb.hpp **** 
 535              		.loc 3 14 27
 536 0364 63060500 		beqz	a0,.L19
  14:src/../h/ccb.hpp **** 
 537              		.loc 3 14 22
 538 0368 97000000 		call	_ZdaPv
 538      E7800000 
 539              	.LVL63:
 540              	.L19:
 541              	.LBE47:
 542              	.LBE46:
 543              		.loc 1 106 12
 544 0370 13850400 		mv	a0,s1
 545 0374 97000000 		call	_ZdlPv
GAS LISTING /tmp/cc4CGeYE.s 			page 19


 545      E7800000 
 546              	.LVL64:
 547              	.L18:
 107:src/main.cpp  ****     delete thread2;
 548              		.loc 1 107 5 is_stmt 1
 549              		.loc 1 107 19 is_stmt 0
 550 037c 63000902 		beqz	s2,.L20
 551              	.LVL65:
 552              	.LBB48:
 553              	.LBB49:
  14:src/../h/ccb.hpp **** 
 554              		.loc 3 14 13 is_stmt 1
  14:src/../h/ccb.hpp **** 
 555              		.loc 3 14 22 is_stmt 0
 556 0380 03358901 		ld	a0,24(s2)
  14:src/../h/ccb.hpp **** 
 557              		.loc 3 14 27
 558 0384 63060500 		beqz	a0,.L21
  14:src/../h/ccb.hpp **** 
 559              		.loc 3 14 22
 560 0388 97000000 		call	_ZdaPv
 560      E7800000 
 561              	.LVL66:
 562              	.L21:
 563              	.LBE49:
 564              	.LBE48:
 565              		.loc 1 107 12
 566 0390 13050900 		mv	a0,s2
 567 0394 97000000 		call	_ZdlPv
 567      E7800000 
 568              	.LVL67:
 569              	.L20:
 108:src/main.cpp  ****     delete thread3;
 570              		.loc 1 108 5 is_stmt 1
 571              		.loc 1 108 19 is_stmt 0
 572 039c 63800902 		beqz	s3,.L22
 573              	.LVL68:
 574              	.LBB50:
 575              	.LBB51:
  14:src/../h/ccb.hpp **** 
 576              		.loc 3 14 13 is_stmt 1
  14:src/../h/ccb.hpp **** 
 577              		.loc 3 14 22 is_stmt 0
 578 03a0 03B58901 		ld	a0,24(s3)
  14:src/../h/ccb.hpp **** 
 579              		.loc 3 14 27
 580 03a4 63060500 		beqz	a0,.L23
  14:src/../h/ccb.hpp **** 
 581              		.loc 3 14 22
 582 03a8 97000000 		call	_ZdaPv
 582      E7800000 
 583              	.LVL69:
 584              	.L23:
 585              	.LBE51:
 586              	.LBE50:
 587              		.loc 1 108 12
 588 03b0 13850900 		mv	a0,s3
GAS LISTING /tmp/cc4CGeYE.s 			page 20


 589 03b4 97000000 		call	_ZdlPv
 589      E7800000 
 590              	.LVL70:
 591              	.L22:
 109:src/main.cpp  ****     delete thread4;
 592              		.loc 1 109 5 is_stmt 1
 593              		.loc 1 109 19 is_stmt 0
 594 03bc 63000A02 		beqz	s4,.L24
 595              	.LVL71:
 596              	.LBB52:
 597              	.LBB53:
  14:src/../h/ccb.hpp **** 
 598              		.loc 3 14 13 is_stmt 1
  14:src/../h/ccb.hpp **** 
 599              		.loc 3 14 22 is_stmt 0
 600 03c0 03358A01 		ld	a0,24(s4)
  14:src/../h/ccb.hpp **** 
 601              		.loc 3 14 27
 602 03c4 63060500 		beqz	a0,.L25
  14:src/../h/ccb.hpp **** 
 603              		.loc 3 14 22
 604 03c8 97000000 		call	_ZdaPv
 604      E7800000 
 605              	.LVL72:
 606              	.L25:
 607              	.LBE53:
 608              	.LBE52:
 609              		.loc 1 109 12
 610 03d0 13050A00 		mv	a0,s4
 611 03d4 97000000 		call	_ZdlPv
 611      E7800000 
 612              	.LVL73:
 613              	.L24:
 110:src/main.cpp  **** 
 111:src/main.cpp  ****     // 9) Završi sa ispisima PRE brisanja console_mutex-a
 112:src/main.cpp  ****     printString("Main finished.\n");
 614              		.loc 1 112 5 is_stmt 1
 615              		.loc 1 112 16 is_stmt 0
 616 03dc 17050000 		lla	a0,.LC13
 616      13050500 
 617 03e4 97000000 		call	_Z11printStringPKc
 617      E7800000 
 618              	.LVL74:
 113:src/main.cpp  **** 
 114:src/main.cpp  ****     // Ako želiš, možeš ugasiti “console locking”
 115:src/main.cpp  ****     scheduler_started = false;
 619              		.loc 1 115 5 is_stmt 1
 620              		.loc 1 115 23 is_stmt 0
 621 03ec 97070000 		sb	zero,scheduler_started,a5
 621      23800700 
 116:src/main.cpp  **** 
 117:src/main.cpp  ****     // 10) Sad je bezbedno obrisati semafore
 118:src/main.cpp  ****     delete mutex;
 622              		.loc 1 118 5 is_stmt 1
 623              		.loc 1 118 12 is_stmt 0
 624 03f4 97040000 		ld	s1,mutex
 624      83B40400 
GAS LISTING /tmp/cc4CGeYE.s 			page 21


 625              	.LVL75:
 626              		.loc 1 118 17
 627 03fc 638E0400 		beqz	s1,.L26
 628              		.loc 1 118 12 discriminator 1
 629 0400 13850400 		mv	a0,s1
 630 0404 97000000 		call	_ZN4_semD1Ev
 630      E7800000 
 631              	.LVL76:
 632 040c 13850400 		mv	a0,s1
 633 0410 97000000 		call	_ZN4_semdlEPv
 633      E7800000 
 634              	.LVL77:
 635              	.L26:
 119:src/main.cpp  ****     delete console_mutex;
 636              		.loc 1 119 5 is_stmt 1
 637              		.loc 1 119 12 is_stmt 0
 638 0418 97040000 		ld	s1,console_mutex
 638      83B40400 
 639              		.loc 1 119 25
 640 0420 638E0400 		beqz	s1,.L27
 641              		.loc 1 119 12 discriminator 1
 642 0424 13850400 		mv	a0,s1
 643 0428 97000000 		call	_ZN4_semD1Ev
 643      E7800000 
 644              	.LVL78:
 645 0430 13850400 		mv	a0,s1
 646 0434 97000000 		call	_ZN4_semdlEPv
 646      E7800000 
 647              	.LVL79:
 648              	.L27:
 120:src/main.cpp  **** 
 121:src/main.cpp  ****     // (opcionalno) isključi prekide pre izlaska iz main-a
 122:src/main.cpp  ****     Riscv::mc_sstatus(Riscv::SSTATUS_SIE);
 649              		.loc 1 122 5 is_stmt 1
 650              	.LBB54:
 651              	.LBB55:
 190:src/../h/riscv.hpp **** }
 652              		.loc 2 190 5
 190:src/../h/riscv.hpp **** }
 653              		.loc 2 190 68 is_stmt 0
 654 043c 93072000 		li	a5,2
 655              	 #APP
 656              	# 190 "src/../h/riscv.hpp" 1
 657              		csrc sstatus, a5
 658              	# 0 "" 2
 659              	.LVL80:
 660              	 #NO_APP
 661              	.LBE55:
 662              	.LBE54:
 123:src/main.cpp  **** 
 124:src/main.cpp  ****     return 0;
 663              		.loc 1 124 5 is_stmt 1
 125:src/main.cpp  **** }...
 664              		.loc 1 125 1 is_stmt 0
 665 0444 13050000 		li	a0,0
 666 0448 83308104 		ld	ra,72(sp)
 667              		.cfi_remember_state
GAS LISTING /tmp/cc4CGeYE.s 			page 22


 668              		.cfi_restore 1
 669 044c 03340104 		ld	s0,64(sp)
 670              		.cfi_restore 8
 671              		.cfi_def_cfa 2, 80
 672 0450 83348103 		ld	s1,56(sp)
 673              		.cfi_restore 9
 674 0454 03390103 		ld	s2,48(sp)
 675              		.cfi_restore 18
 676              	.LVL81:
 677 0458 83398102 		ld	s3,40(sp)
 678              		.cfi_restore 19
 679              	.LVL82:
 680 045c 033A0102 		ld	s4,32(sp)
 681              		.cfi_restore 20
 682              	.LVL83:
 683 0460 833A8101 		ld	s5,24(sp)
 684              		.cfi_restore 21
 685 0464 13010105 		addi	sp,sp,80
 686              		.cfi_def_cfa_offset 0
 687 0468 67800000 		jr	ra
 688              	.LVL84:
 689              	.L16:
 690              		.cfi_restore_state
 102:src/main.cpp  ****         printString("ERROR: Race condition detected!\n");
 691              		.loc 1 102 9 is_stmt 1
 102:src/main.cpp  ****         printString("ERROR: Race condition detected!\n");
 692              		.loc 1 102 20 is_stmt 0
 693 046c 17050000 		lla	a0,.LC12
 693      13050500 
 694 0474 97000000 		call	_Z11printStringPKc
 694      E7800000 
 695              	.LVL85:
 696              	.LEHE4:
 697 047c 6FF01FEE 		j	.L17
 698              	.LVL86:
 699              	.L30:
 700 0480 13090500 		mv	s2,a0
  52:src/main.cpp  ****     console_mutex = new _sem(1);
 701              		.loc 1 52 31
 702 0484 13850400 		mv	a0,s1
 703 0488 97000000 		call	_ZN4_semdlEPv
 703      E7800000 
 704              	.LVL87:
 705 0490 13050900 		mv	a0,s2
 706              	.LEHB5:
 707 0494 97000000 		call	_Unwind_Resume
 707      E7800000 
 708              	.LVL88:
 709              	.LEHE5:
 710              	.L31:
 711 049c 13090500 		mv	s2,a0
  68:src/main.cpp  ****     mutex = new _sem(1);
 712              		.loc 1 68 23
 713 04a0 13850400 		mv	a0,s1
 714 04a4 97000000 		call	_ZN4_semdlEPv
 714      E7800000 
 715              	.LVL89:
GAS LISTING /tmp/cc4CGeYE.s 			page 23


 716 04ac 13050900 		mv	a0,s2
 717              	.LEHB6:
 718 04b0 97000000 		call	_Unwind_Resume
 718      E7800000 
 719              	.LVL90:
 720              	.LEHE6:
 721              		.cfi_endproc
 722              	.LFE43:
 723              		.globl	__gxx_personality_v0
 724              		.section	.gcc_except_table,"aw",@progbits
 725              	.LLSDA43:
 726 0000 FF       		.byte	0xff
 727 0001 FF       		.byte	0xff
 728 0002 03       		.byte	0x3
 729 0003 5B       		.byte	0x5b
 730 0004 00000000 		.4byte	.LEHB0-.LFB43
 731 0008 00000000 		.4byte	.LEHE0-.LEHB0
 732 000c 00000000 		.4byte	0
 733 0010 00       		.byte	0
 734 0011 00000000 		.4byte	.LEHB1-.LFB43
 735 0015 00000000 		.4byte	.LEHE1-.LEHB1
 736 0019 00000000 		.4byte	.L30-.LFB43
 737 001d 00       		.byte	0
 738 001e 00000000 		.4byte	.LEHB2-.LFB43
 739 0022 00000000 		.4byte	.LEHE2-.LEHB2
 740 0026 00000000 		.4byte	0
 741 002a 00       		.byte	0
 742 002b 00000000 		.4byte	.LEHB3-.LFB43
 743 002f 00000000 		.4byte	.LEHE3-.LEHB3
 744 0033 00000000 		.4byte	.L31-.LFB43
 745 0037 00       		.byte	0
 746 0038 00000000 		.4byte	.LEHB4-.LFB43
 747 003c 00000000 		.4byte	.LEHE4-.LEHB4
 748 0040 00000000 		.4byte	0
 749 0044 00       		.byte	0
 750 0045 00000000 		.4byte	.LEHB5-.LFB43
 751 0049 00000000 		.4byte	.LEHE5-.LEHB5
 752 004d 00000000 		.4byte	0
 753 0051 00       		.byte	0
 754 0052 00000000 		.4byte	.LEHB6-.LFB43
 755 0056 00000000 		.4byte	.LEHE6-.LEHB6
 756 005a 00000000 		.4byte	0
 757 005e 00       		.byte	0
 758              		.text
 760              		.globl	scheduler_started
 761              		.globl	console_mutex
 762              		.globl	mutex
 763              		.globl	shared_data
 764              		.section	.sbss,"aw",@nobits
 765              		.align	3
 768              	scheduler_started:
 769 0000 00       		.zero	1
 770 0001 00000000 		.zero	7
 770      000000
 773              	console_mutex:
 774 0008 00000000 		.zero	8
 774      00000000 
GAS LISTING /tmp/cc4CGeYE.s 			page 24


 777              	mutex:
 778 0010 00000000 		.zero	8
 778      00000000 
 781              	shared_data:
 782 0018 00000000 		.zero	4
 783              		.text
 784              	.Letext0:
 785              		.file 4 "src/../h/../lib/hw.h"
 786              		.file 5 "src/../h/_semaphore.hpp"
 787              		.file 6 "src/../h/print.hpp"
 788              		.file 7 "src/../h/MemoryAllocator.hpp"
 789              		.file 8 "src/../h/Scheduler.hpp"
 790              		.file 9 "src/../h/../h/list.hpp"
 4742              		.align	3
 4745              	DW.ref.__gxx_personality_v0:
 4746 0000 00000000 		.dword	__gxx_personality_v0
 4746      00000000 
 4747              		.ident	"GCC: () 9.3.0"
GAS LISTING /tmp/cc4CGeYE.s 			page 25

