GAS LISTING /tmp/ccuTMHBs.s 			page 1


   1              		.file	"print.cpp"
   2              		.option nopic
   3              		.option norelax
   4              		.attribute arch, "rv64i2p0_m2p0_a2p0"
   5              		.attribute unaligned_access, 0
   6              		.attribute stack_align, 16
   7              		.text
   8              	.Ltext0:
   9              		.align	2
  10              		.globl	_Z11printStringPKc
  12              	_Z11printStringPKc:
  13              	.LFB9:
  14              		.file 1 "src/print.cpp"
   1:src/print.cpp **** //
   2:src/print.cpp **** // Created by os on 9/26/25.
   3:src/print.cpp **** //
   4:src/print.cpp **** 
   5:src/print.cpp **** // src/print.cpp
   6:src/print.cpp **** 
   7:src/print.cpp **** #include "../h/print.hpp"
   8:src/print.cpp **** #include "../h/_semaphore.hpp"
   9:src/print.cpp **** #include "../lib/console.h"
  10:src/print.cpp **** 
  11:src/print.cpp **** extern _sem* console_mutex;
  12:src/print.cpp **** extern bool scheduler_started;
  13:src/print.cpp **** 
  14:src/print.cpp **** void printString(const char *string) {
  15              		.loc 1 14 38
  16              		.cfi_startproc
  17              	.LVL0:
  18 0000 130101FE 		addi	sp,sp,-32
  19              		.cfi_def_cfa_offset 32
  20 0004 233C1100 		sd	ra,24(sp)
  21 0008 23388100 		sd	s0,16(sp)
  22 000c 23349100 		sd	s1,8(sp)
  23              		.cfi_offset 1, -8
  24              		.cfi_offset 8, -16
  25              		.cfi_offset 9, -24
  26 0010 13040102 		addi	s0,sp,32
  27              		.cfi_def_cfa 8, 0
  28 0014 93040500 		mv	s1,a0
  15:src/print.cpp ****     if (scheduler_started && console_mutex) {
  29              		.loc 1 15 5
  30 0018 97070000 		lbu	a5,scheduler_started
  30      83C70700 
  31 0020 638C0700 		beqz	a5,.L4
  32              		.loc 1 15 30 is_stmt 0 discriminator 1
  33 0024 17050000 		ld	a0,console_mutex
  33      03350500 
  34              	.LVL1:
  35              		.loc 1 15 27 discriminator 1
  36 002c 63060500 		beqz	a0,.L4
  16:src/print.cpp ****         console_mutex->wait();
  37              		.loc 1 16 9 is_stmt 1
  38              		.loc 1 16 28 is_stmt 0
  39 0030 97000000 		call	_ZN4_sem4waitEv
  39      E7800000 
GAS LISTING /tmp/ccuTMHBs.s 			page 2


  40              	.LVL2:
  41              	.L4:
  17:src/print.cpp ****     }
  18:src/print.cpp ****     while (*string != '\0') {
  42              		.loc 1 18 5 is_stmt 1
  43              		.loc 1 18 20
  44              		.loc 1 18 12 is_stmt 0
  45 0038 03C50400 		lbu	a0,0(s1)
  46              		.loc 1 18 20
  47 003c 630A0500 		beqz	a0,.L3
  19:src/print.cpp ****         __putc(*string);
  48              		.loc 1 19 9 is_stmt 1
  49              		.loc 1 19 15 is_stmt 0
  50 0040 97000000 		call	__putc
  50      E7800000 
  51              	.LVL3:
  20:src/print.cpp ****         string++;
  52              		.loc 1 20 9 is_stmt 1
  53              		.loc 1 20 15 is_stmt 0
  54 0048 93841400 		addi	s1,s1,1
  55              	.LVL4:
  18:src/print.cpp ****         __putc(*string);
  56              		.loc 1 18 5
  57 004c 6FF0DFFE 		j	.L4
  58              	.L3:
  21:src/print.cpp ****     }
  22:src/print.cpp ****     if (scheduler_started && console_mutex) {
  59              		.loc 1 22 5 is_stmt 1
  60 0050 97070000 		lbu	a5,scheduler_started
  60      83C70700 
  61 0058 638C0700 		beqz	a5,.L1
  62              		.loc 1 22 30 is_stmt 0 discriminator 1
  63 005c 17050000 		ld	a0,console_mutex
  63      03350500 
  64              		.loc 1 22 27 discriminator 1
  65 0064 63060500 		beqz	a0,.L1
  23:src/print.cpp ****         console_mutex->signal();
  66              		.loc 1 23 9 is_stmt 1
  67              		.loc 1 23 30 is_stmt 0
  68 0068 97000000 		call	_ZN4_sem6signalEv
  68      E7800000 
  69              	.LVL5:
  70              	.L1:
  24:src/print.cpp ****     }
  25:src/print.cpp **** }
  71              		.loc 1 25 1
  72 0070 83308101 		ld	ra,24(sp)
  73              		.cfi_restore 1
  74 0074 03340101 		ld	s0,16(sp)
  75              		.cfi_restore 8
  76              		.cfi_def_cfa 2, 32
  77 0078 83348100 		ld	s1,8(sp)
  78              		.cfi_restore 9
  79              	.LVL6:
  80 007c 13010102 		addi	sp,sp,32
  81              		.cfi_def_cfa_offset 0
  82 0080 67800000 		jr	ra
GAS LISTING /tmp/ccuTMHBs.s 			page 3


  83              		.cfi_endproc
  84              	.LFE9:
  86              		.align	2
  87              		.globl	_Z12printIntegerm
  89              	_Z12printIntegerm:
  90              	.LFB10:
  26:src/print.cpp **** 
  27:src/print.cpp **** void printInteger(uint64 integer) {
  91              		.loc 1 27 35 is_stmt 1
  92              		.cfi_startproc
  93              	.LVL7:
  94 0084 130101FD 		addi	sp,sp,-48
  95              		.cfi_def_cfa_offset 48
  96 0088 23341102 		sd	ra,40(sp)
  97 008c 23308102 		sd	s0,32(sp)
  98              		.cfi_offset 1, -8
  99              		.cfi_offset 8, -16
 100 0090 13040103 		addi	s0,sp,48
 101              		.cfi_def_cfa 8, 0
  28:src/print.cpp ****     static char digits[] = "0123456789";
 102              		.loc 1 28 5
  29:src/print.cpp ****     char buf[21];
 103              		.loc 1 29 5
  30:src/print.cpp ****     int i = sizeof(buf) - 1;
 104              		.loc 1 30 5
 105              	.LVL8:
  31:src/print.cpp ****     buf[i] = '\0';
 106              		.loc 1 31 5
 107              		.loc 1 31 12 is_stmt 0
 108 0094 230604FE 		sb	zero,-20(s0)
  32:src/print.cpp **** 
  33:src/print.cpp ****     if (integer == 0) {
 109              		.loc 1 33 5 is_stmt 1
 110 0098 63180502 		bnez	a0,.L10
  34:src/print.cpp ****         buf[--i] = '0';
 111              		.loc 1 34 9
 112              	.LVL9:
 113              		.loc 1 34 18 is_stmt 0
 114 009c 93070003 		li	a5,48
 115 00a0 A305F4FE 		sb	a5,-21(s0)
 116 00a4 13073001 		li	a4,19
 117              	.LVL10:
 118              	.L9:
  35:src/print.cpp ****     } else {
  36:src/print.cpp ****         do {
  37:src/print.cpp ****             buf[--i] = digits[integer % 10];
  38:src/print.cpp ****             integer /= 10;
  39:src/print.cpp ****         } while (integer != 0);
  40:src/print.cpp ****     }
  41:src/print.cpp **** 
  42:src/print.cpp ****     // Pozivamo printString koji će se pobrinuti za zaključavanje.
  43:src/print.cpp ****     // Nema __putc, wait, ili signal poziva ovde!
  44:src/print.cpp ****     printString(&buf[i]);
 119              		.loc 1 44 5 is_stmt 1
 120              		.loc 1 44 16 is_stmt 0
 121 00a8 930784FD 		addi	a5,s0,-40
 122 00ac 3385E700 		add	a0,a5,a4
GAS LISTING /tmp/ccuTMHBs.s 			page 4


 123              	.LVL11:
 124 00b0 97000000 		call	_Z11printStringPKc
 124      E7800000 
 125              	.LVL12:
  45:src/print.cpp **** }...
 126              		.loc 1 45 1
 127 00b8 83308102 		ld	ra,40(sp)
 128              		.cfi_remember_state
 129              		.cfi_restore 1
 130 00bc 03340102 		ld	s0,32(sp)
 131              		.cfi_restore 8
 132              		.cfi_def_cfa 2, 48
 133 00c0 13010103 		addi	sp,sp,48
 134              		.cfi_def_cfa_offset 0
 135 00c4 67800000 		jr	ra
 136              	.LVL13:
 137              	.L10:
 138              		.cfi_restore_state
  30:src/print.cpp ****     int i = sizeof(buf) - 1;
 139              		.loc 1 30 9
 140 00c8 13074001 		li	a4,20
 141              	.LVL14:
 142              	.L8:
  36:src/print.cpp ****         do {
 143              		.loc 1 36 9 is_stmt 1
  37:src/print.cpp ****             buf[--i] = digits[integer % 10];
 144              		.loc 1 37 13
  37:src/print.cpp ****             buf[--i] = digits[integer % 10];
 145              		.loc 1 37 39 is_stmt 0
 146 00cc 9306A000 		li	a3,10
 147 00d0 3376D502 		remu	a2,a0,a3
  37:src/print.cpp ****             buf[--i] = digits[integer % 10];
 148              		.loc 1 37 22
 149 00d4 1B07F7FF 		addiw	a4,a4,-1
 150              	.LVL15:
  37:src/print.cpp ****             buf[--i] = digits[integer % 10];
 151              		.loc 1 37 43
 152 00d8 97070000 		lla	a5,.LANCHOR0
 152      93870700 
 153 00e0 B387C700 		add	a5,a5,a2
 154 00e4 03C60700 		lbu	a2,0(a5)
  37:src/print.cpp ****             buf[--i] = digits[integer % 10];
 155              		.loc 1 37 22
 156 00e8 930704FF 		addi	a5,s0,-16
 157 00ec B387E700 		add	a5,a5,a4
 158 00f0 2384C7FE 		sb	a2,-24(a5)
  38:src/print.cpp ****             integer /= 10;
 159              		.loc 1 38 13 is_stmt 1
 160 00f4 13060500 		mv	a2,a0
  38:src/print.cpp ****             integer /= 10;
 161              		.loc 1 38 21 is_stmt 0
 162 00f8 3355D502 		divu	a0,a0,a3
 163              	.LVL16:
  39:src/print.cpp ****         } while (integer != 0);
 164              		.loc 1 39 26 is_stmt 1
 165 00fc 93079000 		li	a5,9
 166 0100 E3E6C7FC 		bgtu	a2,a5,.L8
GAS LISTING /tmp/ccuTMHBs.s 			page 5


 167 0104 6FF05FFA 		j	.L9
 168              		.cfi_endproc
 169              	.LFE10:
 171              		.section	.rodata
 172              		.align	3
 173              		.set	.LANCHOR0,. + 0
 176              	_ZZ12printIntegermE6digits:
 177 0000 30313233 		.string	"0123456789"
 177      34353637 
 177      383900
 178              		.text
 179              	.Letext0:
 180              		.file 2 "src/../h/../lib/hw.h"
 181              		.file 3 "src/../h/_semaphore.hpp"
 182              		.file 4 "src/../h/print.hpp"
 183              		.file 5 "src/../h/list.hpp"
 184              		.file 6 "src/../lib/console.h"
GAS LISTING /tmp/ccuTMHBs.s 			page 6

