GAS LISTING /tmp/cckaijbH.s 			page 1


   1              		.file	"syscall_c.cpp"
   2              		.option nopic
   3              		.option norelax
   4              		.attribute arch, "rv64i2p0_m2p0_a2p0"
   5              		.attribute unaligned_access, 0
   6              		.attribute stack_align, 16
   7              		.text
   8              	.Ltext0:
   9              		.align	2
  10              		.globl	_Z9mem_allocm
  12              	_Z9mem_allocm:
  13              	.LFB1:
  14              		.file 1 "src/syscall_c.cpp"
   1:src/syscall_c.cpp **** //
   2:src/syscall_c.cpp **** // Created by os on 9/30/25.
   3:src/syscall_c.cpp **** //
   4:src/syscall_c.cpp **** 
   5:src/syscall_c.cpp **** #include "../h/syscall_c.hpp"
   6:src/syscall_c.cpp **** #include "../lib/hw.h" // Za definicije kodova i tipova
   7:src/syscall_c.cpp **** 
   8:src/syscall_c.cpp **** // ====================================================================
   9:src/syscall_c.cpp **** // Definicije kodova sistemskih poziva
  10:src/syscall_c.cpp **** // Moraju biti usaglašeni sa onima u riscv.cpp
  11:src/syscall_c.cpp **** // ====================================================================
  12:src/syscall_c.cpp **** enum SyscallCode {
  13:src/syscall_c.cpp ****     MEM_ALLOC = 0x01,
  14:src/syscall_c.cpp ****     MEM_FREE = 0x02,
  15:src/syscall_c.cpp ****     THREAD_CREATE = 0x11,
  16:src/syscall_c.cpp ****     THREAD_EXIT = 0x12,
  17:src/syscall_c.cpp ****     THREAD_DISPATCH = 0x13,
  18:src/syscall_c.cpp ****     SEM_OPEN = 0x21,
  19:src/syscall_c.cpp ****     SEM_CLOSE = 0x22,
  20:src/syscall_c.cpp ****     SEM_WAIT = 0x23,
  21:src/syscall_c.cpp ****     SEM_SIGNAL = 0x24
  22:src/syscall_c.cpp **** };
  23:src/syscall_c.cpp **** 
  24:src/syscall_c.cpp **** // ====================================================================
  25:src/syscall_c.cpp **** // Pomoćna funkcija za poziv sistemskog poziva
  26:src/syscall_c.cpp **** // ====================================================================
  27:src/syscall_c.cpp **** static inline void syscall(uint64 code, uint64 arg1 = 0, uint64 arg2 = 0, uint64 arg3 = 0, uint64 a
  28:src/syscall_c.cpp ****     __asm__ volatile (
  29:src/syscall_c.cpp ****             "mv a4, %[arg4]\n"
  30:src/syscall_c.cpp ****             "mv a3, %[arg3]\n"
  31:src/syscall_c.cpp ****             "mv a2, %[arg2]\n"
  32:src/syscall_c.cpp ****             "mv a1, %[arg1]\n"
  33:src/syscall_c.cpp ****             "mv a0, %[code]\n"
  34:src/syscall_c.cpp ****             "ecall"
  35:src/syscall_c.cpp ****             : // nema izlaznih operanada
  36:src/syscall_c.cpp ****             : [code]"r"(code), [arg1]"r"(arg1), [arg2]"r"(arg2), [arg3]"r"(arg3), [arg4]"r"(arg4)
  37:src/syscall_c.cpp ****     : "a0", "a1", "a2", "a3", "a4" // Registri koji se menjaju
  38:src/syscall_c.cpp ****     );
  39:src/syscall_c.cpp **** }
  40:src/syscall_c.cpp **** 
  41:src/syscall_c.cpp **** // ====================================================================
  42:src/syscall_c.cpp **** // Implementacija C API funkcija
  43:src/syscall_c.cpp **** // ====================================================================
  44:src/syscall_c.cpp **** 
GAS LISTING /tmp/cckaijbH.s 			page 2


  45:src/syscall_c.cpp **** void* mem_alloc(size_t size) {
  15              		.loc 1 45 30
  16              		.cfi_startproc
  17              	.LVL0:
  18 0000 130101FF 		addi	sp,sp,-16
  19              		.cfi_def_cfa_offset 16
  20 0004 23348100 		sd	s0,8(sp)
  21              		.cfi_offset 8, -8
  22 0008 13040101 		addi	s0,sp,16
  23              		.cfi_def_cfa 8, 0
  24 000c 93080500 		mv	a7,a0
  46:src/syscall_c.cpp ****     syscall(MEM_ALLOC, (uint64)size);
  25              		.loc 1 46 5
  26              	.LVL1:
  27              	.LBB20:
  28              	.LBB21:
  28:src/syscall_c.cpp ****             "mv a4, %[arg4]\n"
  29              		.loc 1 28 5
  38:src/syscall_c.cpp **** }
  30              		.loc 1 38 6 is_stmt 0
  31 0010 93070000 		li	a5,0
  32 0014 13081000 		li	a6,1
  33              	 #APP
  34              	# 38 "src/syscall_c.cpp" 1
  35              		mv a4, a5
  36              	mv a3, a5
  37              	mv a2, a5
  38              	mv a1, a7
  39              	mv a0, a6
  40              	ecall
  41              	# 0 "" 2
  42              	.LVL2:
  43              	 #NO_APP
  44              	.LBE21:
  45              	.LBE20:
  47:src/syscall_c.cpp ****     uint64 ret;
  46              		.loc 1 47 5 is_stmt 1
  48:src/syscall_c.cpp ****     __asm__ volatile ("mv %0, a0" : "=r" (ret));
  47              		.loc 1 48 5
  48              		.loc 1 48 48 is_stmt 0
  49              	 #APP
  50              	# 48 "src/syscall_c.cpp" 1
  49              	    return (void*)ret;
  51              		mv a0, a0
  52              	# 0 "" 2
  53              	.LVL3:
  54              		.loc 1 49 5 is_stmt 1
  50:src/syscall_c.cpp **** }
  55              		.loc 1 50 1 is_stmt 0
  56              	 #NO_APP
  57 0034 03348100 		ld	s0,8(sp)
  58              		.cfi_restore 8
  59              		.cfi_def_cfa 2, 16
  60 0038 13010101 		addi	sp,sp,16
  61              		.cfi_def_cfa_offset 0
  62 003c 67800000 		jr	ra
  63              		.cfi_endproc
GAS LISTING /tmp/cckaijbH.s 			page 3


  64              	.LFE1:
  66              		.align	2
  67              		.globl	_Z8mem_freePv
  69              	_Z8mem_freePv:
  70              	.LFB2:
  51:src/syscall_c.cpp **** 
  52:src/syscall_c.cpp **** int mem_free(void* ptr) {
  71              		.loc 1 52 25 is_stmt 1
  72              		.cfi_startproc
  73              	.LVL4:
  74 0040 130101FF 		addi	sp,sp,-16
  75              		.cfi_def_cfa_offset 16
  76 0044 23348100 		sd	s0,8(sp)
  77              		.cfi_offset 8, -8
  78 0048 13040101 		addi	s0,sp,16
  79              		.cfi_def_cfa 8, 0
  80 004c 93080500 		mv	a7,a0
  53:src/syscall_c.cpp ****     syscall(MEM_FREE, (uint64)ptr);
  81              		.loc 1 53 5
  82              	.LVL5:
  83              	.LBB22:
  84              	.LBB23:
  28:src/syscall_c.cpp ****             "mv a4, %[arg4]\n"
  85              		.loc 1 28 5
  38:src/syscall_c.cpp **** }
  86              		.loc 1 38 6 is_stmt 0
  87 0050 93070000 		li	a5,0
  88 0054 13082000 		li	a6,2
  89              	 #APP
  90              	# 38 "src/syscall_c.cpp" 1
  91              		mv a4, a5
  92              	mv a3, a5
  93              	mv a2, a5
  94              	mv a1, a7
  95              	mv a0, a6
  96              	ecall
  97              	# 0 "" 2
  98              	.LVL6:
  99              	 #NO_APP
 100              	.LBE23:
 101              	.LBE22:
  54:src/syscall_c.cpp ****     uint64 ret;
 102              		.loc 1 54 5 is_stmt 1
  55:src/syscall_c.cpp ****     __asm__ volatile ("mv %0, a0" : "=r" (ret));
 103              		.loc 1 55 5
 104              		.loc 1 55 48 is_stmt 0
 105              	 #APP
 106              	# 55 "src/syscall_c.cpp" 1
  56              	    return (int)ret;
 107              		mv a0, a0
 108              	# 0 "" 2
 109              	.LVL7:
 110              		.loc 1 56 5 is_stmt 1
  57:src/syscall_c.cpp **** }
 111              		.loc 1 57 1 is_stmt 0
 112              	 #NO_APP
 113 0074 1B050500 		sext.w	a0,a0
GAS LISTING /tmp/cckaijbH.s 			page 4


 114              	.LVL8:
 115 0078 03348100 		ld	s0,8(sp)
 116              		.cfi_restore 8
 117              		.cfi_def_cfa 2, 16
 118 007c 13010101 		addi	sp,sp,16
 119              		.cfi_def_cfa_offset 0
 120 0080 67800000 		jr	ra
 121              		.cfi_endproc
 122              	.LFE2:
 124              		.align	2
 125              		.globl	_Z13thread_createPP3CCBPFvPvES2_
 127              	_Z13thread_createPP3CCBPFvPvES2_:
 128              	.LFB3:
  58:src/syscall_c.cpp **** 
  59:src/syscall_c.cpp **** int thread_create(thread_t* handle, void(*start_routine)(void*), void* arg) {
 129              		.loc 1 59 77 is_stmt 1
 130              		.cfi_startproc
 131              	.LVL9:
 132 0084 130101FF 		addi	sp,sp,-16
 133              		.cfi_def_cfa_offset 16
 134 0088 23348100 		sd	s0,8(sp)
 135              		.cfi_offset 8, -8
 136 008c 13040101 		addi	s0,sp,16
 137              		.cfi_def_cfa 8, 0
 138 0090 13080500 		mv	a6,a0
 139 0094 93880500 		mv	a7,a1
 140 0098 13030600 		mv	t1,a2
  60:src/syscall_c.cpp ****     // Stek se alocira unutar kernela, ne ovde.
  61:src/syscall_c.cpp ****     // Argumente pakujemo u registre i zovemo ecall.
  62:src/syscall_c.cpp ****     // a1 = handle, a2 = start_routine, a3 = arg
  63:src/syscall_c.cpp ****     syscall(THREAD_CREATE, (uint64)handle, (uint64)start_routine, (uint64)arg);
 141              		.loc 1 63 5
 142              	.LVL10:
 143              	.LBB24:
 144              	.LBB25:
  28:src/syscall_c.cpp ****             "mv a4, %[arg4]\n"
 145              		.loc 1 28 5
  38:src/syscall_c.cpp **** }
 146              		.loc 1 38 6 is_stmt 0
 147 009c 93071001 		li	a5,17
 148 00a0 130E0000 		li	t3,0
 149              	 #APP
 150              	# 38 "src/syscall_c.cpp" 1
 151              		mv a4, t3
 152              	mv a3, t1
 153              	mv a2, a7
 154              	mv a1, a6
 155              	mv a0, a5
 156              	ecall
 157              	# 0 "" 2
 158              	.LVL11:
 159              	 #NO_APP
 160              	.LBE25:
 161              	.LBE24:
  64:src/syscall_c.cpp ****     uint64 ret;
 162              		.loc 1 64 5 is_stmt 1
  65:src/syscall_c.cpp ****     __asm__ volatile ("mv %0, a0" : "=r" (ret));
GAS LISTING /tmp/cckaijbH.s 			page 5


 163              		.loc 1 65 5
 164              		.loc 1 65 48 is_stmt 0
 165              	 #APP
 166              	# 65 "src/syscall_c.cpp" 1
  66              	    return (int)ret;
 167              		mv a0, a0
 168              	# 0 "" 2
 169              	.LVL12:
 170              		.loc 1 66 5 is_stmt 1
  67:src/syscall_c.cpp **** }
 171              		.loc 1 67 1 is_stmt 0
 172              	 #NO_APP
 173 00c0 1B050500 		sext.w	a0,a0
 174              	.LVL13:
 175 00c4 03348100 		ld	s0,8(sp)
 176              		.cfi_restore 8
 177              		.cfi_def_cfa 2, 16
 178 00c8 13010101 		addi	sp,sp,16
 179              		.cfi_def_cfa_offset 0
 180 00cc 67800000 		jr	ra
 181              		.cfi_endproc
 182              	.LFE3:
 184              		.align	2
 185              		.globl	_Z11thread_exitv
 187              	_Z11thread_exitv:
 188              	.LFB4:
  68:src/syscall_c.cpp **** 
  69:src/syscall_c.cpp **** int thread_exit() {
 189              		.loc 1 69 19 is_stmt 1
 190              		.cfi_startproc
 191 00d0 130101FF 		addi	sp,sp,-16
 192              		.cfi_def_cfa_offset 16
 193 00d4 23348100 		sd	s0,8(sp)
 194              		.cfi_offset 8, -8
 195 00d8 13040101 		addi	s0,sp,16
 196              		.cfi_def_cfa 8, 0
  70:src/syscall_c.cpp ****     syscall(THREAD_EXIT);
 197              		.loc 1 70 5
 198              	.LVL14:
 199              	.LBB26:
 200              	.LBB27:
  28:src/syscall_c.cpp ****             "mv a4, %[arg4]\n"
 201              		.loc 1 28 5
  38:src/syscall_c.cpp **** }
 202              		.loc 1 38 6 is_stmt 0
 203 00dc 93070000 		li	a5,0
 204 00e0 13082001 		li	a6,18
 205              	 #APP
 206              	# 38 "src/syscall_c.cpp" 1
 207              		mv a4, a5
 208              	mv a3, a5
 209              	mv a2, a5
 210              	mv a1, a5
 211              	mv a0, a6
 212              	ecall
 213              	# 0 "" 2
 214              	.LVL15:
GAS LISTING /tmp/cckaijbH.s 			page 6


 215              	 #NO_APP
 216              	.LBE27:
 217              	.LBE26:
  71:src/syscall_c.cpp ****     // Ova funkcija se ne vraća ako je uspešna
  72:src/syscall_c.cpp ****     return -1; // Vraća grešku ako ecall ne uspe
 218              		.loc 1 72 5 is_stmt 1
  73:src/syscall_c.cpp **** }
 219              		.loc 1 73 1 is_stmt 0
 220 00fc 1305F0FF 		li	a0,-1
 221 0100 03348100 		ld	s0,8(sp)
 222              		.cfi_restore 8
 223              		.cfi_def_cfa 2, 16
 224 0104 13010101 		addi	sp,sp,16
 225              		.cfi_def_cfa_offset 0
 226 0108 67800000 		jr	ra
 227              		.cfi_endproc
 228              	.LFE4:
 230              		.align	2
 231              		.globl	_Z15thread_dispatchv
 233              	_Z15thread_dispatchv:
 234              	.LFB5:
  74:src/syscall_c.cpp **** 
  75:src/syscall_c.cpp **** void thread_dispatch() {
 235              		.loc 1 75 24 is_stmt 1
 236              		.cfi_startproc
 237 010c 130101FF 		addi	sp,sp,-16
 238              		.cfi_def_cfa_offset 16
 239 0110 23348100 		sd	s0,8(sp)
 240              		.cfi_offset 8, -8
 241 0114 13040101 		addi	s0,sp,16
 242              		.cfi_def_cfa 8, 0
  76:src/syscall_c.cpp ****     syscall(THREAD_DISPATCH);
 243              		.loc 1 76 5
 244              	.LVL16:
 245              	.LBB28:
 246              	.LBB29:
  28:src/syscall_c.cpp ****             "mv a4, %[arg4]\n"
 247              		.loc 1 28 5
  38:src/syscall_c.cpp **** }
 248              		.loc 1 38 6 is_stmt 0
 249 0118 93070000 		li	a5,0
 250 011c 13083001 		li	a6,19
 251              	 #APP
 252              	# 38 "src/syscall_c.cpp" 1
 253              		mv a4, a5
 254              	mv a3, a5
 255              	mv a2, a5
 256              	mv a1, a5
 257              	mv a0, a6
 258              	ecall
 259              	# 0 "" 2
 260              	.LVL17:
 261              	 #NO_APP
 262              	.LBE29:
 263              	.LBE28:
  77:src/syscall_c.cpp **** }
 264              		.loc 1 77 1
GAS LISTING /tmp/cckaijbH.s 			page 7


 265 0138 03348100 		ld	s0,8(sp)
 266              		.cfi_restore 8
 267              		.cfi_def_cfa 2, 16
 268 013c 13010101 		addi	sp,sp,16
 269              		.cfi_def_cfa_offset 0
 270 0140 67800000 		jr	ra
 271              		.cfi_endproc
 272              	.LFE5:
 274              		.align	2
 275              		.globl	_Z8sem_openPP4_semj
 277              	_Z8sem_openPP4_semj:
 278              	.LFB6:
  78:src/syscall_c.cpp **** 
  79:src/syscall_c.cpp **** int sem_open(sem_t* handle, unsigned init) {
 279              		.loc 1 79 44 is_stmt 1
 280              		.cfi_startproc
 281              	.LVL18:
 282 0144 130101FF 		addi	sp,sp,-16
 283              		.cfi_def_cfa_offset 16
 284 0148 23348100 		sd	s0,8(sp)
 285              		.cfi_offset 8, -8
 286 014c 13040101 		addi	s0,sp,16
 287              		.cfi_def_cfa 8, 0
 288 0150 13030500 		mv	t1,a0
  80:src/syscall_c.cpp ****     syscall(SEM_OPEN, (uint64)handle, (uint64)init);
 289              		.loc 1 80 5
 290              		.loc 1 80 12 is_stmt 0
 291 0154 93970502 		slli	a5,a1,32
 292 0158 93D70702 		srli	a5,a5,32
 293              	.LVL19:
 294              	.LBB30:
 295              	.LBB31:
  28:src/syscall_c.cpp ****             "mv a4, %[arg4]\n"
 296              		.loc 1 28 5 is_stmt 1
  38:src/syscall_c.cpp **** }
 297              		.loc 1 38 6 is_stmt 0
 298 015c 13080000 		li	a6,0
 299 0160 93081002 		li	a7,33
 300              	 #APP
 301              	# 38 "src/syscall_c.cpp" 1
 302              		mv a4, a6
 303              	mv a3, a6
 304              	mv a2, a5
 305              	mv a1, t1
 306              	mv a0, a7
 307              	ecall
 308              	# 0 "" 2
 309              	.LVL20:
 310              	 #NO_APP
 311              	.LBE31:
 312              	.LBE30:
  81:src/syscall_c.cpp ****     uint64 ret;
 313              		.loc 1 81 5 is_stmt 1
  82:src/syscall_c.cpp ****     __asm__ volatile ("mv %0, a0" : "=r" (ret));
 314              		.loc 1 82 5
 315              		.loc 1 82 48 is_stmt 0
 316              	 #APP
GAS LISTING /tmp/cckaijbH.s 			page 8


 317              	# 82 "src/syscall_c.cpp" 1
  83              	    return (int)ret;
 318              		mv a0, a0
 319              	# 0 "" 2
 320              	.LVL21:
 321              		.loc 1 83 5 is_stmt 1
  84:src/syscall_c.cpp **** }
 322              		.loc 1 84 1 is_stmt 0
 323              	 #NO_APP
 324 0180 1B050500 		sext.w	a0,a0
 325              	.LVL22:
 326 0184 03348100 		ld	s0,8(sp)
 327              		.cfi_restore 8
 328              		.cfi_def_cfa 2, 16
 329 0188 13010101 		addi	sp,sp,16
 330              		.cfi_def_cfa_offset 0
 331 018c 67800000 		jr	ra
 332              		.cfi_endproc
 333              	.LFE6:
 335              		.align	2
 336              		.globl	_Z9sem_closeP4_sem
 338              	_Z9sem_closeP4_sem:
 339              	.LFB7:
  85:src/syscall_c.cpp **** 
  86:src/syscall_c.cpp **** int sem_close(sem_t handle) {
 340              		.loc 1 86 29 is_stmt 1
 341              		.cfi_startproc
 342              	.LVL23:
 343 0190 130101FF 		addi	sp,sp,-16
 344              		.cfi_def_cfa_offset 16
 345 0194 23348100 		sd	s0,8(sp)
 346              		.cfi_offset 8, -8
 347 0198 13040101 		addi	s0,sp,16
 348              		.cfi_def_cfa 8, 0
 349 019c 93080500 		mv	a7,a0
  87:src/syscall_c.cpp ****     syscall(SEM_CLOSE, (uint64)handle);
 350              		.loc 1 87 5
 351              	.LVL24:
 352              	.LBB32:
 353              	.LBB33:
  28:src/syscall_c.cpp ****             "mv a4, %[arg4]\n"
 354              		.loc 1 28 5
  38:src/syscall_c.cpp **** }
 355              		.loc 1 38 6 is_stmt 0
 356 01a0 93070000 		li	a5,0
 357 01a4 13082002 		li	a6,34
 358              	 #APP
 359              	# 38 "src/syscall_c.cpp" 1
 360              		mv a4, a5
 361              	mv a3, a5
 362              	mv a2, a5
 363              	mv a1, a7
 364              	mv a0, a6
 365              	ecall
 366              	# 0 "" 2
 367              	.LVL25:
 368              	 #NO_APP
GAS LISTING /tmp/cckaijbH.s 			page 9


 369              	.LBE33:
 370              	.LBE32:
  88:src/syscall_c.cpp ****     uint64 ret;
 371              		.loc 1 88 5 is_stmt 1
  89:src/syscall_c.cpp ****     __asm__ volatile ("mv %0, a0" : "=r" (ret));
 372              		.loc 1 89 5
 373              		.loc 1 89 48 is_stmt 0
 374              	 #APP
 375              	# 89 "src/syscall_c.cpp" 1
  90              	    return (int)ret;
 376              		mv a0, a0
 377              	# 0 "" 2
 378              	.LVL26:
 379              		.loc 1 90 5 is_stmt 1
  91:src/syscall_c.cpp **** }
 380              		.loc 1 91 1 is_stmt 0
 381              	 #NO_APP
 382 01c4 1B050500 		sext.w	a0,a0
 383              	.LVL27:
 384 01c8 03348100 		ld	s0,8(sp)
 385              		.cfi_restore 8
 386              		.cfi_def_cfa 2, 16
 387 01cc 13010101 		addi	sp,sp,16
 388              		.cfi_def_cfa_offset 0
 389 01d0 67800000 		jr	ra
 390              		.cfi_endproc
 391              	.LFE7:
 393              		.align	2
 394              		.globl	_Z8sem_waitP4_sem
 396              	_Z8sem_waitP4_sem:
 397              	.LFB8:
  92:src/syscall_c.cpp **** 
  93:src/syscall_c.cpp **** int sem_wait(sem_t id) {
 398              		.loc 1 93 24 is_stmt 1
 399              		.cfi_startproc
 400              	.LVL28:
 401 01d4 130101FF 		addi	sp,sp,-16
 402              		.cfi_def_cfa_offset 16
 403 01d8 23348100 		sd	s0,8(sp)
 404              		.cfi_offset 8, -8
 405 01dc 13040101 		addi	s0,sp,16
 406              		.cfi_def_cfa 8, 0
 407 01e0 93080500 		mv	a7,a0
  94:src/syscall_c.cpp ****     syscall(SEM_WAIT, (uint64)id);
 408              		.loc 1 94 5
 409              	.LVL29:
 410              	.LBB34:
 411              	.LBB35:
  28:src/syscall_c.cpp ****             "mv a4, %[arg4]\n"
 412              		.loc 1 28 5
  38:src/syscall_c.cpp **** }
 413              		.loc 1 38 6 is_stmt 0
 414 01e4 93070000 		li	a5,0
 415 01e8 13083002 		li	a6,35
 416              	 #APP
 417              	# 38 "src/syscall_c.cpp" 1
 418              		mv a4, a5
GAS LISTING /tmp/cckaijbH.s 			page 10


 419              	mv a3, a5
 420              	mv a2, a5
 421              	mv a1, a7
 422              	mv a0, a6
 423              	ecall
 424              	# 0 "" 2
 425              	.LVL30:
 426              	 #NO_APP
 427              	.LBE35:
 428              	.LBE34:
  95:src/syscall_c.cpp ****     uint64 ret;
 429              		.loc 1 95 5 is_stmt 1
  96:src/syscall_c.cpp ****     __asm__ volatile ("mv %0, a0" : "=r" (ret));
 430              		.loc 1 96 5
 431              		.loc 1 96 48 is_stmt 0
 432              	 #APP
 433              	# 96 "src/syscall_c.cpp" 1
  97              	    return (int)ret;
 434              		mv a0, a0
 435              	# 0 "" 2
 436              	.LVL31:
 437              		.loc 1 97 5 is_stmt 1
  98:src/syscall_c.cpp **** }
 438              		.loc 1 98 1 is_stmt 0
 439              	 #NO_APP
 440 0208 1B050500 		sext.w	a0,a0
 441              	.LVL32:
 442 020c 03348100 		ld	s0,8(sp)
 443              		.cfi_restore 8
 444              		.cfi_def_cfa 2, 16
 445 0210 13010101 		addi	sp,sp,16
 446              		.cfi_def_cfa_offset 0
 447 0214 67800000 		jr	ra
 448              		.cfi_endproc
 449              	.LFE8:
 451              		.align	2
 452              		.globl	_Z10sem_signalP4_sem
 454              	_Z10sem_signalP4_sem:
 455              	.LFB9:
  99:src/syscall_c.cpp **** 
 100:src/syscall_c.cpp **** int sem_signal(sem_t id) {
 456              		.loc 1 100 26 is_stmt 1
 457              		.cfi_startproc
 458              	.LVL33:
 459 0218 130101FF 		addi	sp,sp,-16
 460              		.cfi_def_cfa_offset 16
 461 021c 23348100 		sd	s0,8(sp)
 462              		.cfi_offset 8, -8
 463 0220 13040101 		addi	s0,sp,16
 464              		.cfi_def_cfa 8, 0
 465 0224 93080500 		mv	a7,a0
 101:src/syscall_c.cpp ****     syscall(SEM_SIGNAL, (uint64)id);
 466              		.loc 1 101 5
 467              	.LVL34:
 468              	.LBB36:
 469              	.LBB37:
  28:src/syscall_c.cpp ****             "mv a4, %[arg4]\n"
GAS LISTING /tmp/cckaijbH.s 			page 11


 470              		.loc 1 28 5
  38:src/syscall_c.cpp **** }
 471              		.loc 1 38 6 is_stmt 0
 472 0228 93070000 		li	a5,0
 473 022c 13084002 		li	a6,36
 474              	 #APP
 475              	# 38 "src/syscall_c.cpp" 1
 476              		mv a4, a5
 477              	mv a3, a5
 478              	mv a2, a5
 479              	mv a1, a7
 480              	mv a0, a6
 481              	ecall
 482              	# 0 "" 2
 483              	.LVL35:
 484              	 #NO_APP
 485              	.LBE37:
 486              	.LBE36:
 102:src/syscall_c.cpp ****     uint64 ret;
 487              		.loc 1 102 5 is_stmt 1
 103:src/syscall_c.cpp ****     __asm__ volatile ("mv %0, a0" : "=r" (ret));
 488              		.loc 1 103 5
 489              		.loc 1 103 48 is_stmt 0
 490              	 #APP
 491              	# 103 "src/syscall_c.cpp" 1
 104              	    return (int)ret;
 492              		mv a0, a0
 493              	# 0 "" 2
 494              	.LVL36:
 495              		.loc 1 104 5 is_stmt 1
 105:src/syscall_c.cpp **** }...
 496              		.loc 1 105 1 is_stmt 0
 497              	 #NO_APP
 498 024c 1B050500 		sext.w	a0,a0
 499              	.LVL37:
 500 0250 03348100 		ld	s0,8(sp)
 501              		.cfi_restore 8
 502              		.cfi_def_cfa 2, 16
 503 0254 13010101 		addi	sp,sp,16
 504              		.cfi_def_cfa_offset 0
 505 0258 67800000 		jr	ra
 506              		.cfi_endproc
 507              	.LFE9:
 509              	.Letext0:
 510              		.file 2 "src/../h/syscall_c.hpp"
 511              		.file 3 "src/../lib/hw.h"
GAS LISTING /tmp/cckaijbH.s 			page 12

