GAS LISTING /tmp/cckaijbH.s 			page 1


   1              		.file	"syscall_c.cpp"
   2              		.option nopic
   3              		.option norelax
   4              		.attribute arch, "rv64i2p0_m2p0_a2p0"
   5              		.attribute unaligned_access, 0
   6              		.attribute stack_align, 16
   7              		.text
   8              	.Ltext0:
   9              		.align	2
  10              		.globl	_Z9mem_allocm
  12              	_Z9mem_allocm:
  13              	.LFB1:
  14              		.file 1 "src/syscall_c.cpp"
   1:src/syscall_c.cpp **** //
   2:src/syscall_c.cpp **** // Created by os on 9/30/25.
   3:src/syscall_c.cpp **** //
   4:src/syscall_c.cpp **** 
   5:src/syscall_c.cpp **** #include "../h/syscall_c.hpp"
   6:src/syscall_c.cpp **** #include "../lib/hw.h" // Za definicije kodova i tipova
   7:src/syscall_c.cpp **** 
   8:src/syscall_c.cpp **** // ====================================================================
   9:src/syscall_c.cpp **** // Definicije kodova sistemskih poziva
  10:src/syscall_c.cpp **** // Moraju biti usaglašeni sa onima u riscv.cpp
  11:src/syscall_c.cpp **** // ====================================================================
  12:src/syscall_c.cpp **** enum SyscallCode {
  13:src/syscall_c.cpp ****     MEM_ALLOC = 0x01,
  14:src/syscall_c.cpp ****     MEM_FREE = 0x02,
  15:src/syscall_c.cpp ****     THREAD_CREATE = 0x11,
  16:src/syscall_c.cpp ****     THREAD_EXIT = 0x12,
  17:src/syscall_c.cpp ****     THREAD_DISPATCH = 0x13,
  18:src/syscall_c.cpp ****     SEM_OPEN = 0x21,
  19:src/syscall_c.cpp ****     SEM_CLOSE = 0x22,
  20:src/syscall_c.cpp ****     SEM_WAIT = 0x23,
  21:src/syscall_c.cpp ****     SEM_SIGNAL = 0x24
  22:src/syscall_c.cpp **** };
  23:src/syscall_c.cpp **** 
  24:src/syscall_c.cpp **** // ====================================================================
  25:src/syscall_c.cpp **** // Pomoćna funkcija za poziv sistemskog poziva
  26:src/syscall_c.cpp **** // ====================================================================
  27:src/syscall_c.cpp **** static inline void syscall(uint64 code, uint64 arg1 = 0, uint64 arg2 = 0, uint64 arg3 = 0, uint64 a
  28:src/syscall_c.cpp ****     __asm__ volatile (
  29:src/syscall_c.cpp ****             "mv a4, %[arg4]\n"
  30:src/syscall_c.cpp ****             "mv a3, %[arg3]\n"
  31:src/syscall_c.cpp ****             "mv a2, %[arg2]\n"
  32:src/syscall_c.cpp ****             "mv a1, %[arg1]\n"
  33:src/syscall_c.cpp ****             "mv a0, %[code]\n"
  34:src/syscall_c.cpp ****             "ecall"
  35:src/syscall_c.cpp ****             : // nema izlaznih operanada
  36:src/syscall_c.cpp ****             : [code]"r"(code), [arg1]"r"(arg1), [arg2]"r"(arg2), [arg3]"r"(arg3), [arg4]"r"(arg4)
  37:src/syscall_c.cpp ****     : "a0", "a1", "a2", "a3", "a4" // Registri koji se menjaju
  38:src/syscall_c.cpp ****     );
  39:src/syscall_c.cpp **** }
  40:src/syscall_c.cpp **** 
  41:src/syscall_c.cpp **** // ====================================================================
  42:src/syscall_c.cpp **** // Implementacija C API funkcija
  43:src/syscall_c.cpp **** // ====================================================================
  44:src/syscall_c.cpp **** 
GAS LISTING /tmp/cckaijbH.s 			page 2


  45:src/syscall_c.cpp **** void* mem_alloc(size_t size) {
  15              		.loc 1 45 30
  16              		.cfi_startproc
  17              	.LVL0:
  18 0000 130101FF 		addi	sp,sp,-16
  19              		.cfi_def_cfa_offset 16
  20 0004 23348100 		sd	s0,8(sp)
  21              		.cfi_offset 8, -8
  22 0008 13040101 		addi	s0,sp,16
  23              		.cfi_def_cfa 8, 0
  24 000c 93080500 		mv	a7,a0
  46:src/syscall_c.cpp ****     syscall(MEM_ALLOC, (uint64)size);
  25              		.loc 1 46 5
  26              	.LVL1:
  27              	.LBB20:
  28              	.LBB21:
  28:src/syscall_c.cpp ****             "mv a4, %[arg4]\n"
  29              		.loc 1 28 5
  38:src/syscall_c.cpp **** }
  30              		.loc 1 38 6 is_stmt 0
  31 0010 93070000 		li	a5,0
  32 0014 13081000 		li	a6,1
  33              	 #APP
  34              	# 38 "src/syscall_c.cpp" 1
  35              		mv a4, a5
  36              	mv a3, a5
  37              	mv a2, a5
  38              	mv a1, a7
  39              	mv a0, a6
  40              	ecall
  41              	# 0 "" 2
  42              	.LVL2:
  43              	 #NO_APP
  44              	.LBE21:
  45              	.LBE20:
  47:src/syscall_c.cpp ****     uint64 ret;
  46              		.loc 1 47 5 is_stmt 1
  48:src/syscall_c.cpp ****     __asm__ volatile ("mv %0, a0" : "=r" (ret));
  47              		.loc 1 48 5
  48              		.loc 1 48 48 is_stmt 0
  49              	 #APP
  50              	# 48 "src/syscall_c.cpp" 1
  49              	    return (void*)ret;
  51              		mv a0, a0
  52              	# 0 "" 2
  53              	.LVL3:
  54              		.loc 1 49 5 is_stmt 1
  50:src/syscall_c.cpp **** }
  55              		.loc 1 50 1 is_stmt 0
  56              	 #NO_APP
  57 0034 03348100 		ld	s0,8(sp)
  58              		.cfi_restore 8
  59              		.cfi_def_cfa 2, 16
  60 0038 13010101 		addi	sp,sp,16
  61              		.cfi_def_cfa_offset 0
  62 003c 67800000 		jr	ra
  63              		.cfi_endproc
GAS LISTING /tmp/cckaijbH.s 			page 3


  64              	.LFE1:
  66              		.align	2
  67              		.globl	_Z8mem_freePv
  69              	_Z8mem_freePv:
  70              	.LFB2:
  51:src/syscall_c.cpp **** 
  52:src/syscall_c.cpp **** int mem_free(void* ptr) {
  71              		.loc 1 52 25 is_stmt 1
  72              		.cfi_startproc
  73              	.LVL4:
  74 0040 130101FF 		addi	sp,sp,-16
  75              		.cfi_def_cfa_offset 16
  76 0044 23348100 		sd	s0,8(sp)
  77              		.cfi_offset 8, -8
  78 0048 13040101 		addi	s0,sp,16
  79              		.cfi_def_cfa 8, 0
  80 004c 93080500 		mv	a7,a0
  53:src/syscall_c.cpp ****     syscall(MEM_FREE, (uint64)ptr);
  81              		.loc 1 53 5
  82              	.LVL5:
  83              	.LBB22:
  84              	.LBB23:
  28:src/syscall_c.cpp ****             "mv a4, %[arg4]\n"
  85              		.loc 1 28 5
  38:src/syscall_c.cpp **** }
  86              		.loc 1 38 6 is_stmt 0
  87 0050 93070000 		li	a5,0
  88 0054 13082000 		li	a6,2
  89              	 #APP
  90              	# 38 "src/syscall_c.cpp" 1
  91              		mv a4, a5
  92              	mv a3, a5
  93              	mv a2, a5
  94              	mv a1, a7
  95              	mv a0, a6
  96              	ecall
  97              	# 0 "" 2
  98              	.LVL6:
  99              	 #NO_APP
 100              	.LBE23:
 101              	.LBE22:
  54:src/syscall_c.cpp ****     uint64 ret;
 102              		.loc 1 54 5 is_stmt 1
  55:src/syscall_c.cpp ****     __asm__ volatile ("mv %0, a0" : "=r" (ret));
 103              		.loc 1 55 5
 104              		.loc 1 55 48 is_stmt 0
 105              	 #APP
 106              	# 55 "src/syscall_c.cpp" 1
  56              	    return (int)ret;
 107              		mv a0, a0
 108              	# 0 "" 2
 109              	.LVL7:
 110              		.loc 1 56 5 is_stmt 1
  57:src/syscall_c.cpp **** }
 111              		.loc 1 57 1 is_stmt 0
 112              	 #NO_APP
 113 0074 1B050500 		sext.w	a0,a0
GAS LISTING /tmp/cckaijbH.s 			page 4


 114              	.LVL8:
 115 0078 03348100 		ld	s0,8(sp)
 116              		.cfi_restore 8
 117              		.cfi_def_cfa 2, 16
 118 007c 13010101 		addi	sp,sp,16
 119              		.cfi_def_cfa_offset 0
 120 0080 67800000 		jr	ra
 121              		.cfi_endproc
 122              	.LFE2:
 124              		.align	2
 125              		.globl	_Z13thread_createPP3CCBPFvPvES2_
 127              	_Z13thread_createPP3CCBPFvPvES2_:
 128              	.LFB3:
  58:src/syscall_c.cpp **** 
  59:src/syscall_c.cpp **** int thread_create(thread_t* handle, void(*start_routine)(void*), void* arg) {
 129              		.loc 1 59 77 is_stmt 1
 130              		.cfi_startproc
 131              	.LVL9:
 132 0084 130101FF 		addi	sp,sp,-16
 133              		.cfi_def_cfa_offset 16
 134 0088 23348100 		sd	s0,8(sp)
 135              		.cfi_offset 8, -8
 136 008c 13040101 		addi	s0,sp,16
 137              		.cfi_def_cfa 8, 0
 138 0090 13080500 		mv	a6,a0
 139 0094 93880500 		mv	a7,a1
 140 0098 13030600 		mv	t1,a2
  60:src/syscall_c.cpp ****     // Stek se alocira unutar kernela, ne ovde.
  61:src/syscall_c.cpp ****     // Argumente pakujemo u registre i zovemo ecall.
  62:src/syscall_c.cpp ****     // a1 = handle, a2 = start_routine, a3 = arg
  63:src/syscall_c.cpp ****     syscall(THREAD_CREATE, (uint64)handle, (uint64)start_routine, (uint64)arg);
 141              		.loc 1 63 5
 142              	.LVL10:
 143              	.LBB24:
 144              	.LBB25:
  28:src/syscall_c.cpp ****             "mv a4, %[arg4]\n"
 145              		.loc 1 28 5
  38:src/syscall_c.cpp **** }
 146              		.loc 1 38 6 is_stmt 0
 147 009c 93071001 		li	a5,17
 148 00a0 130E0000 		li	t3,0
 149              	 #APP
 150              	# 38 "src/syscall_c.cpp" 1
 151              		mv a4, t3
 152              	mv a3, t1
 153              	mv a2, a7
 154              	mv a1, a6
 155              	mv a0, a5
 156              	ecall
 157              	# 0 "" 2
 158              	.LVL11:
 159              	 #NO_APP
 160              	.LBE25:
 161              	.LBE24:
  64:src/syscall_c.cpp ****     uint64 ret;
 162              		.loc 1 64 5 is_stmt 1
  65:src/syscall_c.cpp ****     __asm__ volatile ("mv %0, a0" : "=r" (ret));
GAS LISTING /tmp/cckaijbH.s 			page 5


 163              		.loc 1 65 5
 164              		.loc 1 65 48 is_stmt 0
 165              	 #APP
 166              	# 65 "src/syscall_c.cpp" 1
  66              	    return (int)ret;
 167              		mv a0, a0
 168              	# 0 "" 2
 169              	.LVL12:
 170              		.loc 1 66 5 is_stmt 1
  67:src/syscall_c.cpp **** }
 171              		.loc 1 67 1 is_stmt 0
 172              	 #NO_APP
 173 00c0 1B050500 		sext.w	a0,a0
 174              	.LVL13:
 175 00c4 03348100 		ld	s0,8(sp)
 176              		.cfi_restore 8
 177              		.cfi_def_cfa 2, 16
 178 00c8 13010101 		addi	sp,sp,16
 179              		.cfi_def_cfa_offset 0
 180 00cc 67800000 		jr	ra
 181              		.cfi_endproc
 182              	.LFE3:
 184              		.align	2
 185              		.globl	_Z11thread_exitv
 187              	_Z11thread_exitv:
 188              	.LFB4:
  68:src/syscall_c.cpp **** 
  69:src/syscall_c.cpp **** int thread_exit() {
 189              		.loc 1 69 19 is_stmt 1
 190              		.cfi_startproc
 191 00d0 130101FF 		addi	sp,sp,-16
 192              		.cfi_def_cfa_offset 16
 193 00d4 23348100 		sd	s0,8(sp)
 194              		.cfi_offset 8, -8
 195 00d8 13040101 		addi	s0,sp,16
 196              		.cfi_def_cfa 8, 0
  70:src/syscall_c.cpp ****     syscall(THREAD_EXIT);
 197              		.loc 1 70 5
 198              	.LVL14:
 199              	.LBB26:
 200              	.LBB27:
  28:src/syscall_c.cpp ****             "mv a4, %[arg4]\n"
 201              		.loc 1 28 5
  38:src/syscall_c.cpp **** }
 202              		.loc 1 38 6 is_stmt 0
 203 00dc 93070000 		li	a5,0
 204 00e0 13082001 		li	a6,18
 205              	 #APP
 206              	# 38 "src/syscall_c.cpp" 1
 207              		mv a4, a5
 208              	mv a3, a5
 209              	mv a2, a5
 210              	mv a1, a5
 211              	mv a0, a6
 212              	ecall
 213              	# 0 "" 2
 214              	.LVL15:
GAS LISTING /tmp/cckaijbH.s 			page 6


 215              	 #NO_APP
 216              	.LBE27:
 217              	.LBE26:
  71:src/syscall_c.cpp ****     // Ova funkcija se ne vraća ako je uspešna
  72:src/syscall_c.cpp ****     return -1; // Vraća grešku ako ecall ne uspe
 218              		.loc 1 72 5 is_stmt 1
  73:src/syscall_c.cpp **** }
 219              		.loc 1 73 1 is_stmt 0
 220 00fc 1305F0FF 		li	a0,-1
 221 0100 03348100 		ld	s0,8(sp)
 222              		.cfi_restore 8
 223              		.cfi_def_cfa 2, 16
 224 0104 13010101 		addi	sp,sp,16
 225              		.cfi_def_cfa_offset 0
 226 0108 67800000 		jr	ra
 227              		.cfi_endproc
 228              	.LFE4:
 230              		.align	2
 231              		.globl	_Z15thread_dispatchv
 233              	_Z15thread_dispatchv:
 234              	.LFB5:
  74:src/syscall_c.cpp **** 
  75:src/syscall_c.cpp **** void thread_dispatch() {
 235              		.loc 1 75 24 is_stmt 1
 236              		.cfi_startproc
 237 010c 130101FF 		addi	sp,sp,-16
 238              		.cfi_def_cfa_offset 16
 239 0110 23348100 		sd	s0,8(sp)
 240              		.cfi_offset 8, -8
 241 0114 13040101 		addi	s0,sp,16
 242              		.cfi_def_cfa 8, 0
  76:src/syscall_c.cpp ****     syscall(THREAD_DISPATCH);
 243              		.loc 1 76 5
 244              	.LVL16:
 245              	.LBB28:
 246              	.LBB29:
  28:src/syscall_c.cpp ****             "mv a4, %[arg4]\n"
 247              		.loc 1 28 5
  38:src/syscall_c.cpp **** }
 248              		.loc 1 38 6 is_stmt 0
 249 0118 93070000 		li	a5,0
 250 011c 13083001 		li	a6,19
 251              	 #APP
 252              	# 38 "src/syscall_c.cpp" 1
 253              		mv a4, a5
 254              	mv a3, a5
 255              	mv a2, a5
 256              	mv a1, a5
 257              	mv a0, a6
 258              	ecall
 259              	# 0 "" 2
 260              	.LVL17:
 261              	 #NO_APP
 262              	.LBE29:
 263              	.LBE28:
  77:src/syscall_c.cpp **** }
 264              		.loc 1 77 1
GAS LISTING /tmp/cckaijbH.s 			page 7


 265 0138 03348100 		ld	s0,8(sp)
 266              		.cfi_restore 8
 267              		.cfi_def_cfa 2, 16
 268 013c 13010101 		addi	sp,sp,16
 269              		.cfi_def_cfa_offset 0
 270 0140 67800000 		jr	ra
 271              		.cfi_endproc
 272              	.LFE5:
 274              		.align	2
 275              		.globl	_Z8sem_openPP4_semj
 277              	_Z8sem_openPP4_semj:
 278              	.LFB6:
  78:src/syscall_c.cpp **** 
  79:src/syscall_c.cpp **** int sem_open(sem_t* handle, unsigned init) {
 279              		.loc 1 79 44 is_stmt 1
 280              		.cfi_startproc
 281              	.LVL18:
 282 0144 130101FF 		addi	sp,sp,-16
 283              		.cfi_def_cfa_offset 16
 284 0148 23348100 		sd	s0,8(sp)
 285              		.cfi_offset 8, -8
 286 014c 13040101 		addi	s0,sp,16
 287              		.cfi_def_cfa 8, 0
 288 0150 13030500 		mv	t1,a0
  80:src/syscall_c.cpp ****     syscall(SEM_OPEN, (uint64)handle, (uint64)init);
 289              		.loc 1 80 5
 290              		.loc 1 80 12 is_stmt 0
 291 0154 93970502 		slli	a5,a1,32
 292 0158 93D70702 		srli	a5,a5,32
 293              	.LVL19:
 294              	.LBB30:
 295              	.LBB31:
  28:src/syscall_c.cpp ****             "mv a4, %[arg4]\n"
 296              		.loc 1 28 5 is_stmt 1
  38:src/syscall_c.cpp **** }
 297              		.loc 1 38 6 is_stmt 0
 298 015c 13080000 		li	a6,0
 299 0160 93081002 		li	a7,33
 300              	 #APP
 301              	# 38 "src/syscall_c.cpp" 1
 302              		mv a4, a6
 303              	mv a3, a6
 304              	mv a2, a5
 305              	mv a1, t1
 306              	mv a0, a7
 307              	ecall
 308              	# 0 "" 2
 309              	.LVL20:
 310              	 #NO_APP
 311              	.LBE31:
 312              	.LBE30:
  81:src/syscall_c.cpp ****     uint64 ret;
 313              		.loc 1 81 5 is_stmt 1
  82:src/syscall_c.cpp ****     __asm__ volatile ("mv %0, a0" : "=r" (ret));
 314              		.loc 1 82 5
 315              		.loc 1 82 48 is_stmt 0
 316              	 #APP
GAS LISTING /tmp/cckaijbH.s 			page 8


 317              	# 82 "src/syscall_c.cpp" 1
  83              	    return (int)ret;
 318              		mv a0, a0
 319              	# 0 "" 2
 320              	.LVL21:
 321              		.loc 1 83 5 is_stmt 1
  84:src/syscall_c.cpp **** }
 322              		.loc 1 84 1 is_stmt 0
 323              	 #NO_APP
 324 0180 1B050500 		sext.w	a0,a0
 325              	.LVL22:
 326 0184 03348100 		ld	s0,8(sp)
 327              		.cfi_restore 8
 328              		.cfi_def_cfa 2, 16
 329 0188 13010101 		addi	sp,sp,16
 330              		.cfi_def_cfa_offset 0
 331 018c 67800000 		jr	ra
 332              		.cfi_endproc
 333              	.LFE6:
 335              		.align	2
 336              		.globl	_Z9sem_closeP4_sem
 338              	_Z9sem_closeP4_sem:
 339              	.LFB7:
  85:src/syscall_c.cpp **** 
  86:src/syscall_c.cpp **** int sem_close(sem_t handle) {
 340              		.loc 1 86 29 is_stmt 1
 341              		.cfi_startproc
 342              	.LVL23:
 343 0190 130101FF 		addi	sp,sp,-16
 344              		.cfi_def_cfa_offset 16
 345 0194 23348100 		sd	s0,8(sp)
 346              		.cfi_offset 8, -8
 347 0198 13040101 		addi	s0,sp,16
 348              		.cfi_def_cfa 8, 0
 349 019c 93080500 		mv	a7,a0
  87:src/syscall_c.cpp ****     syscall(SEM_CLOSE, (uint64)handle);
 350              		.loc 1 87 5
 351              	.LVL24:
 352              	.LBB32:
 353              	.LBB33:
  28:src/syscall_c.cpp ****             "mv a4, %[arg4]\n"
 354              		.loc 1 28 5
  38:src/syscall_c.cpp **** }
 355              		.loc 1 38 6 is_stmt 0
 356 01a0 93070000 		li	a5,0
 357 01a4 13082002 		li	a6,34
 358              	 #APP
 359              	# 38 "src/syscall_c.cpp" 1
 360              		mv a4, a5
 361              	mv a3, a5
 362              	mv a2, a5
 363              	mv a1, a7
 364              	mv a0, a6
 365              	ecall
 366              	# 0 "" 2
 367              	.LVL25:
 368              	 #NO_APP
GAS LISTING /tmp/cckaijbH.s 			page 9


 369              	.LBE33:
 370              	.LBE32:
  88:src/syscall_c.cpp ****     uint64 ret;
 371              		.loc 1 88 5 is_stmt 1
  89:src/syscall_c.cpp ****     __asm__ volatile ("mv %0, a0" : "=r" (ret));
 372              		.loc 1 89 5
 373              		.loc 1 89 48 is_stmt 0
 374              	 #APP
 375              	# 89 "src/syscall_c.cpp" 1
  90              	    return (int)ret;
 376              		mv a0, a0
 377              	# 0 "" 2
 378              	.LVL26:
 379              		.loc 1 90 5 is_stmt 1
  91:src/syscall_c.cpp **** }
 380              		.loc 1 91 1 is_stmt 0
 381              	 #NO_APP
 382 01c4 1B050500 		sext.w	a0,a0
 383              	.LVL27:
 384 01c8 03348100 		ld	s0,8(sp)
 385              		.cfi_restore 8
 386              		.cfi_def_cfa 2, 16
 387 01cc 13010101 		addi	sp,sp,16
 388              		.cfi_def_cfa_offset 0
 389 01d0 67800000 		jr	ra
 390              		.cfi_endproc
 391              	.LFE7:
 393              		.align	2
 394              		.globl	_Z8sem_waitP4_sem
 396              	_Z8sem_waitP4_sem:
 397              	.LFB8:
  92:src/syscall_c.cpp **** 
  93:src/syscall_c.cpp **** int sem_wait(sem_t id) {
 398              		.loc 1 93 24 is_stmt 1
 399              		.cfi_startproc
 400              	.LVL28:
 401 01d4 130101FF 		addi	sp,sp,-16
 402              		.cfi_def_cfa_offset 16
 403 01d8 23348100 		sd	s0,8(sp)
 404              		.cfi_offset 8, -8
 405 01dc 13040101 		addi	s0,sp,16
 406              		.cfi_def_cfa 8, 0
 407 01e0 93080500 		mv	a7,a0
  94:src/syscall_c.cpp ****     syscall(SEM_WAIT, (uint64)id);
 408              		.loc 1 94 5
 409              	.LVL29:
 410              	.LBB34:
 411              	.LBB35:
  28:src/syscall_c.cpp ****             "mv a4, %[arg4]\n"
 412              		.loc 1 28 5
  38:src/syscall_c.cpp **** }
 413              		.loc 1 38 6 is_stmt 0
 414 01e4 93070000 		li	a5,0
 415 01e8 13083002 		li	a6,35
 416              	 #APP
 417              	# 38 "src/syscall_c.cpp" 1
 418              		mv a4, a5
GAS LISTING /tmp/cckaijbH.s 			page 10


 419              	mv a3, a5
 420              	mv a2, a5
 421              	mv a1, a7
 422              	mv a0, a6
 423              	ecall
 424              	# 0 "" 2
 425              	.LVL30:
 426              	 #NO_APP
 427              	.LBE35:
 428              	.LBE34:
  95:src/syscall_c.cpp ****     uint64 ret;
 429              		.loc 1 95 5 is_stmt 1
  96:src/syscall_c.cpp ****     __asm__ volatile ("mv %0, a0" : "=r" (ret));
 430              		.loc 1 96 5
 431              		.loc 1 96 48 is_stmt 0
 432              	 #APP
 433              	# 96 "src/syscall_c.cpp" 1
  97              	    return (int)ret;
 434              		mv a0, a0
 435              	# 0 "" 2
 436              	.LVL31:
 437              		.loc 1 97 5 is_stmt 1
  98:src/syscall_c.cpp **** }
 438              		.loc 1 98 1 is_stmt 0
 439              	 #NO_APP
 440 0208 1B050500 		sext.w	a0,a0
 441              	.LVL32:
 442 020c 03348100 		ld	s0,8(sp)
 443              		.cfi_restore 8
 444              		.cfi_def_cfa 2, 16
 445 0210 13010101 		addi	sp,sp,16
 446              		.cfi_def_cfa_offset 0
 447 0214 67800000 		jr	ra
 448              		.cfi_endproc
 449              	.LFE8:
 451              		.align	2
 452              		.globl	_Z10sem_signalP4_sem
 454              	_Z10sem_signalP4_sem:
 455              	.LFB9:
  99:src/syscall_c.cpp **** 
 100:src/syscall_c.cpp **** int sem_signal(sem_t id) {
 456              		.loc 1 100 26 is_stmt 1
 457              		.cfi_startproc
 458              	.LVL33:
 459 0218 130101FF 		addi	sp,sp,-16
 460              		.cfi_def_cfa_offset 16
 461 021c 23348100 		sd	s0,8(sp)
 462              		.cfi_offset 8, -8
 463 0220 13040101 		addi	s0,sp,16
 464              		.cfi_def_cfa 8, 0
 465 0224 93080500 		mv	a7,a0
 101:src/syscall_c.cpp ****     syscall(SEM_SIGNAL, (uint64)id);
 466              		.loc 1 101 5
 467              	.LVL34:
 468              	.LBB36:
 469              	.LBB37:
  28:src/syscall_c.cpp ****             "mv a4, %[arg4]\n"
GAS LISTING /tmp/cckaijbH.s 			page 11


 470              		.loc 1 28 5
  38:src/syscall_c.cpp **** }
 471              		.loc 1 38 6 is_stmt 0
 472 0228 93070000 		li	a5,0
 473 022c 13084002 		li	a6,36
 474              	 #APP
 475              	# 38 "src/syscall_c.cpp" 1
 476              		mv a4, a5
 477              	mv a3, a5
 478              	mv a2, a5
 479              	mv a1, a7
 480              	mv a0, a6
 481              	ecall
 482              	# 0 "" 2
 483              	.LVL35:
 484              	 #NO_APP
 485              	.LBE37:
 486              	.LBE36:
 102:src/syscall_c.cpp ****     uint64 ret;
 487              		.loc 1 102 5 is_stmt 1
 103:src/syscall_c.cpp ****     __asm__ volatile ("mv %0, a0" : "=r" (ret));
 488              		.loc 1 103 5
 489              		.loc 1 103 48 is_stmt 0
 490              	 #APP
 491              	# 103 "src/syscall_c.cpp" 1
 104              	    return (int)ret;
 492              		mv a0, a0
 493              	# 0 "" 2
 494              	.LVL36:
 495              		.loc 1 104 5 is_stmt 1
 105:src/syscall_c.cpp **** }...
 496              		.loc 1 105 1 is_stmt 0
 497              	 #NO_APP
 498 024c 1B050500 		sext.w	a0,a0
 499              	.LVL37:
 500 0250 03348100 		ld	s0,8(sp)
 501              		.cfi_restore 8
 502              		.cfi_def_cfa 2, 16
 503 0254 13010101 		addi	sp,sp,16
 504              		.cfi_def_cfa_offset 0
 505 0258 67800000 		jr	ra
 506              		.cfi_endproc
 507              	.LFE9:
 509              	.Letext0:
 510              		.file 2 "src/../h/syscall_c.hpp"
 511              		.file 3 "src/../lib/hw.h"
GAS LISTING /tmp/cckaijbH.s 			page 12


DEFINED SYMBOLS
                            *ABS*:0000000000000000 syscall_c.cpp
     /tmp/cckaijbH.s:12     .text:0000000000000000 _Z9mem_allocm
     /tmp/cckaijbH.s:16     .text:0000000000000000 .L0 
     /tmp/cckaijbH.s:18     .text:0000000000000000 .L0 
     /tmp/cckaijbH.s:19     .text:0000000000000004 .L0 
     /tmp/cckaijbH.s:21     .text:0000000000000008 .L0 
     /tmp/cckaijbH.s:23     .text:000000000000000c .L0 
     /tmp/cckaijbH.s:29     .text:0000000000000010 .L0 
     /tmp/cckaijbH.s:30     .text:0000000000000010 .L0 
     /tmp/cckaijbH.s:31     .text:0000000000000010 .L0 
     /tmp/cckaijbH.s:47     .text:0000000000000030 .L0 
     /tmp/cckaijbH.s:48     .text:0000000000000030 .L0 
   src/syscall_c.cpp:48     .text:0000000000000030 .L0 
     /tmp/cckaijbH.s:55     .text:0000000000000034 .L0 
     /tmp/cckaijbH.s:57     .text:0000000000000034 .L0 
     /tmp/cckaijbH.s:58     .text:0000000000000038 .L0 
     /tmp/cckaijbH.s:59     .text:0000000000000038 .L0 
     /tmp/cckaijbH.s:61     .text:000000000000003c .L0 
     /tmp/cckaijbH.s:63     .text:0000000000000040 .L0 
     /tmp/cckaijbH.s:69     .text:0000000000000040 _Z8mem_freePv
     /tmp/cckaijbH.s:72     .text:0000000000000040 .L0 
     /tmp/cckaijbH.s:74     .text:0000000000000040 .L0 
     /tmp/cckaijbH.s:75     .text:0000000000000044 .L0 
     /tmp/cckaijbH.s:77     .text:0000000000000048 .L0 
     /tmp/cckaijbH.s:79     .text:000000000000004c .L0 
     /tmp/cckaijbH.s:85     .text:0000000000000050 .L0 
     /tmp/cckaijbH.s:86     .text:0000000000000050 .L0 
     /tmp/cckaijbH.s:87     .text:0000000000000050 .L0 
     /tmp/cckaijbH.s:103    .text:0000000000000070 .L0 
     /tmp/cckaijbH.s:104    .text:0000000000000070 .L0 
   src/syscall_c.cpp:55     .text:0000000000000070 .L0 
     /tmp/cckaijbH.s:111    .text:0000000000000074 .L0 
     /tmp/cckaijbH.s:113    .text:0000000000000074 .L0 
     /tmp/cckaijbH.s:116    .text:000000000000007c .L0 
     /tmp/cckaijbH.s:117    .text:000000000000007c .L0 
     /tmp/cckaijbH.s:119    .text:0000000000000080 .L0 
     /tmp/cckaijbH.s:121    .text:0000000000000084 .L0 
     /tmp/cckaijbH.s:127    .text:0000000000000084 _Z13thread_createPP3CCBPFvPvES2_
     /tmp/cckaijbH.s:130    .text:0000000000000084 .L0 
     /tmp/cckaijbH.s:132    .text:0000000000000084 .L0 
     /tmp/cckaijbH.s:133    .text:0000000000000088 .L0 
     /tmp/cckaijbH.s:135    .text:000000000000008c .L0 
     /tmp/cckaijbH.s:137    .text:0000000000000090 .L0 
     /tmp/cckaijbH.s:145    .text:000000000000009c .L0 
     /tmp/cckaijbH.s:146    .text:000000000000009c .L0 
     /tmp/cckaijbH.s:147    .text:000000000000009c .L0 
     /tmp/cckaijbH.s:163    .text:00000000000000bc .L0 
     /tmp/cckaijbH.s:164    .text:00000000000000bc .L0 
   src/syscall_c.cpp:65     .text:00000000000000bc .L0 
     /tmp/cckaijbH.s:171    .text:00000000000000c0 .L0 
     /tmp/cckaijbH.s:173    .text:00000000000000c0 .L0 
     /tmp/cckaijbH.s:176    .text:00000000000000c8 .L0 
     /tmp/cckaijbH.s:177    .text:00000000000000c8 .L0 
     /tmp/cckaijbH.s:179    .text:00000000000000cc .L0 
     /tmp/cckaijbH.s:181    .text:00000000000000d0 .L0 
     /tmp/cckaijbH.s:187    .text:00000000000000d0 _Z11thread_exitv
GAS LISTING /tmp/cckaijbH.s 			page 13


     /tmp/cckaijbH.s:190    .text:00000000000000d0 .L0 
     /tmp/cckaijbH.s:191    .text:00000000000000d0 .L0 
     /tmp/cckaijbH.s:192    .text:00000000000000d4 .L0 
     /tmp/cckaijbH.s:194    .text:00000000000000d8 .L0 
     /tmp/cckaijbH.s:196    .text:00000000000000dc .L0 
     /tmp/cckaijbH.s:201    .text:00000000000000dc .L0 
     /tmp/cckaijbH.s:202    .text:00000000000000dc .L0 
     /tmp/cckaijbH.s:203    .text:00000000000000dc .L0 
     /tmp/cckaijbH.s:219    .text:00000000000000fc .L0 
     /tmp/cckaijbH.s:220    .text:00000000000000fc .L0 
     /tmp/cckaijbH.s:222    .text:0000000000000104 .L0 
     /tmp/cckaijbH.s:223    .text:0000000000000104 .L0 
     /tmp/cckaijbH.s:225    .text:0000000000000108 .L0 
     /tmp/cckaijbH.s:227    .text:000000000000010c .L0 
     /tmp/cckaijbH.s:233    .text:000000000000010c _Z15thread_dispatchv
     /tmp/cckaijbH.s:236    .text:000000000000010c .L0 
     /tmp/cckaijbH.s:237    .text:000000000000010c .L0 
     /tmp/cckaijbH.s:238    .text:0000000000000110 .L0 
     /tmp/cckaijbH.s:240    .text:0000000000000114 .L0 
     /tmp/cckaijbH.s:242    .text:0000000000000118 .L0 
     /tmp/cckaijbH.s:247    .text:0000000000000118 .L0 
     /tmp/cckaijbH.s:248    .text:0000000000000118 .L0 
     /tmp/cckaijbH.s:249    .text:0000000000000118 .L0 
     /tmp/cckaijbH.s:265    .text:0000000000000138 .L0 
     /tmp/cckaijbH.s:266    .text:000000000000013c .L0 
     /tmp/cckaijbH.s:267    .text:000000000000013c .L0 
     /tmp/cckaijbH.s:269    .text:0000000000000140 .L0 
     /tmp/cckaijbH.s:271    .text:0000000000000144 .L0 
     /tmp/cckaijbH.s:277    .text:0000000000000144 _Z8sem_openPP4_semj
     /tmp/cckaijbH.s:280    .text:0000000000000144 .L0 
     /tmp/cckaijbH.s:282    .text:0000000000000144 .L0 
     /tmp/cckaijbH.s:283    .text:0000000000000148 .L0 
     /tmp/cckaijbH.s:285    .text:000000000000014c .L0 
     /tmp/cckaijbH.s:287    .text:0000000000000150 .L0 
     /tmp/cckaijbH.s:290    .text:0000000000000154 .L0 
     /tmp/cckaijbH.s:291    .text:0000000000000154 .L0 
     /tmp/cckaijbH.s:297    .text:000000000000015c .L0 
     /tmp/cckaijbH.s:298    .text:000000000000015c .L0 
     /tmp/cckaijbH.s:314    .text:000000000000017c .L0 
     /tmp/cckaijbH.s:315    .text:000000000000017c .L0 
   src/syscall_c.cpp:82     .text:000000000000017c .L0 
     /tmp/cckaijbH.s:322    .text:0000000000000180 .L0 
     /tmp/cckaijbH.s:324    .text:0000000000000180 .L0 
     /tmp/cckaijbH.s:327    .text:0000000000000188 .L0 
     /tmp/cckaijbH.s:328    .text:0000000000000188 .L0 
     /tmp/cckaijbH.s:330    .text:000000000000018c .L0 
     /tmp/cckaijbH.s:332    .text:0000000000000190 .L0 
     /tmp/cckaijbH.s:338    .text:0000000000000190 _Z9sem_closeP4_sem
     /tmp/cckaijbH.s:341    .text:0000000000000190 .L0 
     /tmp/cckaijbH.s:343    .text:0000000000000190 .L0 
     /tmp/cckaijbH.s:344    .text:0000000000000194 .L0 
     /tmp/cckaijbH.s:346    .text:0000000000000198 .L0 
     /tmp/cckaijbH.s:348    .text:000000000000019c .L0 
     /tmp/cckaijbH.s:354    .text:00000000000001a0 .L0 
     /tmp/cckaijbH.s:355    .text:00000000000001a0 .L0 
     /tmp/cckaijbH.s:356    .text:00000000000001a0 .L0 
     /tmp/cckaijbH.s:372    .text:00000000000001c0 .L0 
GAS LISTING /tmp/cckaijbH.s 			page 14


     /tmp/cckaijbH.s:373    .text:00000000000001c0 .L0 
   src/syscall_c.cpp:89     .text:00000000000001c0 .L0 
     /tmp/cckaijbH.s:380    .text:00000000000001c4 .L0 
     /tmp/cckaijbH.s:382    .text:00000000000001c4 .L0 
     /tmp/cckaijbH.s:385    .text:00000000000001cc .L0 
     /tmp/cckaijbH.s:386    .text:00000000000001cc .L0 
     /tmp/cckaijbH.s:388    .text:00000000000001d0 .L0 
     /tmp/cckaijbH.s:390    .text:00000000000001d4 .L0 
     /tmp/cckaijbH.s:396    .text:00000000000001d4 _Z8sem_waitP4_sem
     /tmp/cckaijbH.s:399    .text:00000000000001d4 .L0 
     /tmp/cckaijbH.s:401    .text:00000000000001d4 .L0 
     /tmp/cckaijbH.s:402    .text:00000000000001d8 .L0 
     /tmp/cckaijbH.s:404    .text:00000000000001dc .L0 
     /tmp/cckaijbH.s:406    .text:00000000000001e0 .L0 
     /tmp/cckaijbH.s:412    .text:00000000000001e4 .L0 
     /tmp/cckaijbH.s:413    .text:00000000000001e4 .L0 
     /tmp/cckaijbH.s:414    .text:00000000000001e4 .L0 
     /tmp/cckaijbH.s:430    .text:0000000000000204 .L0 
     /tmp/cckaijbH.s:431    .text:0000000000000204 .L0 
   src/syscall_c.cpp:96     .text:0000000000000204 .L0 
     /tmp/cckaijbH.s:438    .text:0000000000000208 .L0 
     /tmp/cckaijbH.s:440    .text:0000000000000208 .L0 
     /tmp/cckaijbH.s:443    .text:0000000000000210 .L0 
     /tmp/cckaijbH.s:444    .text:0000000000000210 .L0 
     /tmp/cckaijbH.s:446    .text:0000000000000214 .L0 
     /tmp/cckaijbH.s:448    .text:0000000000000218 .L0 
     /tmp/cckaijbH.s:454    .text:0000000000000218 _Z10sem_signalP4_sem
     /tmp/cckaijbH.s:457    .text:0000000000000218 .L0 
     /tmp/cckaijbH.s:459    .text:0000000000000218 .L0 
     /tmp/cckaijbH.s:460    .text:000000000000021c .L0 
     /tmp/cckaijbH.s:462    .text:0000000000000220 .L0 
     /tmp/cckaijbH.s:464    .text:0000000000000224 .L0 
     /tmp/cckaijbH.s:470    .text:0000000000000228 .L0 
     /tmp/cckaijbH.s:471    .text:0000000000000228 .L0 
     /tmp/cckaijbH.s:472    .text:0000000000000228 .L0 
     /tmp/cckaijbH.s:488    .text:0000000000000248 .L0 
     /tmp/cckaijbH.s:489    .text:0000000000000248 .L0 
   src/syscall_c.cpp:103    .text:0000000000000248 .L0 
     /tmp/cckaijbH.s:496    .text:000000000000024c .L0 
     /tmp/cckaijbH.s:498    .text:000000000000024c .L0 
     /tmp/cckaijbH.s:501    .text:0000000000000254 .L0 
     /tmp/cckaijbH.s:502    .text:0000000000000254 .L0 
     /tmp/cckaijbH.s:504    .text:0000000000000258 .L0 
     /tmp/cckaijbH.s:506    .text:000000000000025c .L0 
     /tmp/cckaijbH.s:512    .text:000000000000025c .L0 
     /tmp/cckaijbH.s:1195   .debug_abbrev:0000000000000000 .Ldebug_abbrev0
     /tmp/cckaijbH.s:1980   .debug_str:000000000000004d .LASF54
     /tmp/cckaijbH.s:2084   .debug_str:00000000000003b9 .LASF55
     /tmp/cckaijbH.s:2056   .debug_str:00000000000002fc .LASF56
     /tmp/cckaijbH.s:8      .text:0000000000000000 .Ltext0
     /tmp/cckaijbH.s:509    .text:000000000000025c .Letext0
     /tmp/cckaijbH.s:1964   .debug_line:0000000000000000 .Ldebug_line0
     /tmp/cckaijbH.s:1978   .debug_str:0000000000000047 .LASF0
     /tmp/cckaijbH.s:2044   .debug_str:00000000000002af .LASF2
     /tmp/cckaijbH.s:2050   .debug_str:00000000000002da .LASF1
     /tmp/cckaijbH.s:2040   .debug_str:0000000000000298 .LASF3
     /tmp/cckaijbH.s:2016   .debug_str:00000000000001f7 .LASF4
GAS LISTING /tmp/cckaijbH.s 			page 15


     /tmp/cckaijbH.s:2004   .debug_str:00000000000001b6 .LASF5
     /tmp/cckaijbH.s:1984   .debug_str:000000000000011f .LASF6
     /tmp/cckaijbH.s:2012   .debug_str:00000000000001dc .LASF7
     /tmp/cckaijbH.s:1972   .debug_str:000000000000002a .LASF8
     /tmp/cckaijbH.s:1970   .debug_str:0000000000000017 .LASF9
     /tmp/cckaijbH.s:1994   .debug_str:0000000000000169 .LASF10
     /tmp/cckaijbH.s:2046   .debug_str:00000000000002b4 .LASF11
     /tmp/cckaijbH.s:1982   .debug_str:0000000000000111 .LASF12
     /tmp/cckaijbH.s:2086   .debug_str:00000000000003cb .LASF13
     /tmp/cckaijbH.s:1998   .debug_str:000000000000018e .LASF14
     /tmp/cckaijbH.s:2074   .debug_str:0000000000000379 .LASF15
     /tmp/cckaijbH.s:2052   .debug_str:00000000000002e3 .LASF16
     /tmp/cckaijbH.s:2020   .debug_str:0000000000000218 .LASF17
     /tmp/cckaijbH.s:1990   .debug_str:000000000000013e .LASF18
     /tmp/cckaijbH.s:2048   .debug_str:00000000000002c4 .LASF19
     /tmp/cckaijbH.s:2064   .debug_str:000000000000034a .LASF57
     /tmp/cckaijbH.s:2024   .debug_str:000000000000022b .LASF20
     /tmp/cckaijbH.s:2072   .debug_str:0000000000000370 .LASF21
     /tmp/cckaijbH.s:2034   .debug_str:0000000000000280 .LASF22
     /tmp/cckaijbH.s:2070   .debug_str:0000000000000364 .LASF23
     /tmp/cckaijbH.s:2058   .debug_str:000000000000031f .LASF24
     /tmp/cckaijbH.s:1968   .debug_str:000000000000000e .LASF25
     /tmp/cckaijbH.s:2042   .debug_str:00000000000002a5 .LASF26
     /tmp/cckaijbH.s:2014   .debug_str:00000000000001ee .LASF27
     /tmp/cckaijbH.s:2062   .debug_str:000000000000033f .LASF28
     /tmp/cckaijbH.s:2026   .debug_str:0000000000000235 .LASF29
     /tmp/cckaijbH.s:2082   .debug_str:00000000000003a4 .LASF31
     /tmp/cckaijbH.s:455    .text:0000000000000218 .LFB9
     /tmp/cckaijbH.s:507    .text:000000000000025c .LFE9
     /tmp/cckaijbH.s:1578   .debug_loc:0000000000000000 .LLST54
     /tmp/cckaijbH.s:1589   .debug_loc:0000000000000036 .LLST55
     /tmp/cckaijbH.s:468    .text:0000000000000228 .LBB36
     /tmp/cckaijbH.s:486    .text:0000000000000248 .LBE36
     /tmp/cckaijbH.s:1596   .debug_loc:0000000000000059 .LLST56
     /tmp/cckaijbH.s:1604   .debug_loc:000000000000007d .LLST59
     /tmp/cckaijbH.s:1611   .debug_loc:00000000000000a0 .LLST60
     /tmp/cckaijbH.s:2008   .debug_str:00000000000001c9 .LASF30
     /tmp/cckaijbH.s:1996   .debug_str:000000000000017c .LASF32
     /tmp/cckaijbH.s:397    .text:00000000000001d4 .LFB8
     /tmp/cckaijbH.s:449    .text:0000000000000218 .LFE8
     /tmp/cckaijbH.s:1620   .debug_loc:00000000000000c5 .LLST47
     /tmp/cckaijbH.s:1631   .debug_loc:00000000000000fb .LLST48
     /tmp/cckaijbH.s:410    .text:00000000000001e4 .LBB34
     /tmp/cckaijbH.s:428    .text:0000000000000204 .LBE34
     /tmp/cckaijbH.s:1638   .debug_loc:000000000000011e .LLST49
     /tmp/cckaijbH.s:1646   .debug_loc:0000000000000142 .LLST52
     /tmp/cckaijbH.s:1653   .debug_loc:0000000000000165 .LLST53
     /tmp/cckaijbH.s:2010   .debug_str:00000000000001d2 .LASF33
     /tmp/cckaijbH.s:1986   .debug_str:0000000000000126 .LASF34
     /tmp/cckaijbH.s:339    .text:0000000000000190 .LFB7
     /tmp/cckaijbH.s:391    .text:00000000000001d4 .LFE7
     /tmp/cckaijbH.s:2022   .debug_str:0000000000000224 .LASF35
     /tmp/cckaijbH.s:1662   .debug_loc:000000000000018a .LLST40
     /tmp/cckaijbH.s:1673   .debug_loc:00000000000001c0 .LLST41
     /tmp/cckaijbH.s:352    .text:00000000000001a0 .LBB32
     /tmp/cckaijbH.s:370    .text:00000000000001c0 .LBE32
     /tmp/cckaijbH.s:1680   .debug_loc:00000000000001e3 .LLST42
GAS LISTING /tmp/cckaijbH.s 			page 16


     /tmp/cckaijbH.s:1688   .debug_loc:0000000000000207 .LLST45
     /tmp/cckaijbH.s:1695   .debug_loc:000000000000022a .LLST46
     /tmp/cckaijbH.s:2068   .debug_str:000000000000035b .LASF36
     /tmp/cckaijbH.s:2000   .debug_str:000000000000019d .LASF37
     /tmp/cckaijbH.s:278    .text:0000000000000144 .LFB6
     /tmp/cckaijbH.s:333    .text:0000000000000190 .LFE6
     /tmp/cckaijbH.s:1704   .debug_loc:000000000000024f .LLST32
     /tmp/cckaijbH.s:1988   .debug_str:0000000000000139 .LASF38
     /tmp/cckaijbH.s:1715   .debug_loc:0000000000000285 .LLST33
     /tmp/cckaijbH.s:1729   .debug_loc:00000000000002be .LLST34
     /tmp/cckaijbH.s:294    .text:000000000000015c .LBB30
     /tmp/cckaijbH.s:312    .text:000000000000017c .LBE30
     /tmp/cckaijbH.s:1736   .debug_loc:00000000000002e1 .LLST35
     /tmp/cckaijbH.s:1744   .debug_loc:0000000000000305 .LLST37
     /tmp/cckaijbH.s:1751   .debug_loc:0000000000000328 .LLST38
     /tmp/cckaijbH.s:1758   .debug_loc:000000000000034b .LLST39
     /tmp/cckaijbH.s:2060   .debug_str:000000000000032f .LASF58
     /tmp/cckaijbH.s:1992   .debug_str:0000000000000154 .LASF59
     /tmp/cckaijbH.s:234    .text:000000000000010c .LFB5
     /tmp/cckaijbH.s:272    .text:0000000000000144 .LFE5
     /tmp/cckaijbH.s:245    .text:0000000000000118 .LBB28
     /tmp/cckaijbH.s:263    .text:0000000000000138 .LBE28
     /tmp/cckaijbH.s:1767   .debug_loc:0000000000000370 .LLST27
     /tmp/cckaijbH.s:1775   .debug_loc:0000000000000394 .LLST31
     /tmp/cckaijbH.s:2076   .debug_str:0000000000000389 .LASF39
     /tmp/cckaijbH.s:2030   .debug_str:0000000000000261 .LASF40
     /tmp/cckaijbH.s:188    .text:00000000000000d0 .LFB4
     /tmp/cckaijbH.s:228    .text:000000000000010c .LFE4
     /tmp/cckaijbH.s:199    .text:00000000000000dc .LBB26
     /tmp/cckaijbH.s:217    .text:00000000000000fc .LBE26
     /tmp/cckaijbH.s:1783   .debug_loc:00000000000003b8 .LLST22
     /tmp/cckaijbH.s:1791   .debug_loc:00000000000003dc .LLST26
     /tmp/cckaijbH.s:2018   .debug_str:000000000000020a .LASF41
     /tmp/cckaijbH.s:2028   .debug_str:0000000000000240 .LASF42
     /tmp/cckaijbH.s:128    .text:0000000000000084 .LFB3
     /tmp/cckaijbH.s:182    .text:00000000000000d0 .LFE3
     /tmp/cckaijbH.s:1799   .debug_loc:0000000000000400 .LLST13
     /tmp/cckaijbH.s:1974   .debug_str:0000000000000031 .LASF43
     /tmp/cckaijbH.s:1810   .debug_loc:0000000000000436 .LLST14
     /tmp/cckaijbH.s:1821   .debug_loc:000000000000046c .LLST15
     /tmp/cckaijbH.s:1832   .debug_loc:00000000000004a2 .LLST16
     /tmp/cckaijbH.s:143    .text:000000000000009c .LBB24
     /tmp/cckaijbH.s:161    .text:00000000000000bc .LBE24
     /tmp/cckaijbH.s:1839   .debug_loc:00000000000004c5 .LLST17
     /tmp/cckaijbH.s:1847   .debug_loc:00000000000004e9 .LLST18
     /tmp/cckaijbH.s:1854   .debug_loc:000000000000050c .LLST19
     /tmp/cckaijbH.s:1861   .debug_loc:000000000000052f .LLST20
     /tmp/cckaijbH.s:1868   .debug_loc:0000000000000552 .LLST21
     /tmp/cckaijbH.s:2054   .debug_str:00000000000002f3 .LASF44
     /tmp/cckaijbH.s:1966   .debug_str:0000000000000000 .LASF45
     /tmp/cckaijbH.s:70     .text:0000000000000040 .LFB2
     /tmp/cckaijbH.s:122    .text:0000000000000084 .LFE2
     /tmp/cckaijbH.s:1876   .debug_loc:0000000000000576 .LLST6
     /tmp/cckaijbH.s:1887   .debug_loc:00000000000005ac .LLST7
     /tmp/cckaijbH.s:83     .text:0000000000000050 .LBB22
     /tmp/cckaijbH.s:101    .text:0000000000000070 .LBE22
     /tmp/cckaijbH.s:1894   .debug_loc:00000000000005cf .LLST8
GAS LISTING /tmp/cckaijbH.s 			page 17


     /tmp/cckaijbH.s:1902   .debug_loc:00000000000005f3 .LLST11
     /tmp/cckaijbH.s:1909   .debug_loc:0000000000000616 .LLST12
     /tmp/cckaijbH.s:2078   .debug_str:0000000000000395 .LASF46
     /tmp/cckaijbH.s:2032   .debug_str:0000000000000272 .LASF47
     /tmp/cckaijbH.s:13     .text:0000000000000000 .LFB1
     /tmp/cckaijbH.s:64     .text:0000000000000040 .LFE1
     /tmp/cckaijbH.s:2080   .debug_str:000000000000039f .LASF48
     /tmp/cckaijbH.s:1917   .debug_loc:000000000000063a .LLST0
     /tmp/cckaijbH.s:27     .text:0000000000000010 .LBB20
     /tmp/cckaijbH.s:45     .text:0000000000000030 .LBE20
     /tmp/cckaijbH.s:1928   .debug_loc:0000000000000670 .LLST1
     /tmp/cckaijbH.s:1936   .debug_loc:0000000000000694 .LLST4
     /tmp/cckaijbH.s:1943   .debug_loc:00000000000006b7 .LLST5
     /tmp/cckaijbH.s:1976   .debug_str:000000000000003f .LASF60
     /tmp/cckaijbH.s:2036   .debug_str:000000000000028e .LASF49
     /tmp/cckaijbH.s:2038   .debug_str:0000000000000293 .LASF50
     /tmp/cckaijbH.s:2002   .debug_str:00000000000001b1 .LASF51
     /tmp/cckaijbH.s:2066   .debug_str:0000000000000356 .LASF52
     /tmp/cckaijbH.s:2006   .debug_str:00000000000001c4 .LASF53
     /tmp/cckaijbH.s:458    .text:0000000000000218 .LVL33
     /tmp/cckaijbH.s:483    .text:0000000000000248 .LVL35
     /tmp/cckaijbH.s:494    .text:000000000000024c .LVL36
     /tmp/cckaijbH.s:499    .text:0000000000000250 .LVL37
     /tmp/cckaijbH.s:467    .text:0000000000000228 .LVL34
     /tmp/cckaijbH.s:400    .text:00000000000001d4 .LVL28
     /tmp/cckaijbH.s:425    .text:0000000000000204 .LVL30
     /tmp/cckaijbH.s:436    .text:0000000000000208 .LVL31
     /tmp/cckaijbH.s:441    .text:000000000000020c .LVL32
     /tmp/cckaijbH.s:409    .text:00000000000001e4 .LVL29
     /tmp/cckaijbH.s:342    .text:0000000000000190 .LVL23
     /tmp/cckaijbH.s:367    .text:00000000000001c0 .LVL25
     /tmp/cckaijbH.s:378    .text:00000000000001c4 .LVL26
     /tmp/cckaijbH.s:383    .text:00000000000001c8 .LVL27
     /tmp/cckaijbH.s:351    .text:00000000000001a0 .LVL24
     /tmp/cckaijbH.s:281    .text:0000000000000144 .LVL18
     /tmp/cckaijbH.s:309    .text:000000000000017c .LVL20
     /tmp/cckaijbH.s:320    .text:0000000000000180 .LVL21
     /tmp/cckaijbH.s:325    .text:0000000000000184 .LVL22
     /tmp/cckaijbH.s:293    .text:000000000000015c .LVL19
     /tmp/cckaijbH.s:244    .text:0000000000000118 .LVL16
     /tmp/cckaijbH.s:260    .text:0000000000000138 .LVL17
     /tmp/cckaijbH.s:198    .text:00000000000000dc .LVL14
     /tmp/cckaijbH.s:214    .text:00000000000000fc .LVL15
     /tmp/cckaijbH.s:131    .text:0000000000000084 .LVL9
     /tmp/cckaijbH.s:158    .text:00000000000000bc .LVL11
     /tmp/cckaijbH.s:169    .text:00000000000000c0 .LVL12
     /tmp/cckaijbH.s:174    .text:00000000000000c4 .LVL13
     /tmp/cckaijbH.s:142    .text:000000000000009c .LVL10
     /tmp/cckaijbH.s:73     .text:0000000000000040 .LVL4
     /tmp/cckaijbH.s:98     .text:0000000000000070 .LVL6
     /tmp/cckaijbH.s:109    .text:0000000000000074 .LVL7
     /tmp/cckaijbH.s:114    .text:0000000000000078 .LVL8
     /tmp/cckaijbH.s:82     .text:0000000000000050 .LVL5
     /tmp/cckaijbH.s:17     .text:0000000000000000 .LVL0
     /tmp/cckaijbH.s:42     .text:0000000000000030 .LVL2
     /tmp/cckaijbH.s:26     .text:0000000000000010 .LVL1
     /tmp/cckaijbH.s:513    .debug_info:0000000000000000 .Ldebug_info0
GAS LISTING /tmp/cckaijbH.s 			page 18



NO UNDEFINED SYMBOLS
